ARM GAS  /tmp/cclU5Am2.s 			page 1


   1              		.cpu cortex-m7
   2              		.arch armv7e-m
   3              		.fpu fpv5-d16
   4              		.eabi_attribute 28, 1
   5              		.eabi_attribute 20, 1
   6              		.eabi_attribute 21, 1
   7              		.eabi_attribute 23, 3
   8              		.eabi_attribute 24, 1
   9              		.eabi_attribute 25, 1
  10              		.eabi_attribute 26, 1
  11              		.eabi_attribute 30, 1
  12              		.eabi_attribute 34, 1
  13              		.eabi_attribute 18, 4
  14              		.file	"stm32h7xx_hal_msp.c"
  15              		.text
  16              	.Ltext0:
  17              		.cfi_sections	.debug_frame
  18              		.file 1 "../../../init/config/Src/stm32h7xx_hal_msp.c"
  19              		.section	.text.HAL_MspInit,"ax",%progbits
  20              		.align	1
  21              		.global	HAL_MspInit
  22              		.syntax unified
  23              		.thumb
  24              		.thumb_func
  26              	HAL_MspInit:
  27              	.LFB144:
   1:../../../init/config/Src/stm32h7xx_hal_msp.c **** /*******************************************************************************
   2:../../../init/config/Src/stm32h7xx_hal_msp.c **** *                                                                              *
   3:../../../init/config/Src/stm32h7xx_hal_msp.c **** * FILE:                                                                        *
   4:../../../init/config/Src/stm32h7xx_hal_msp.c **** *       stm32h7xx_hal_msp.c                                                    *
   5:../../../init/config/Src/stm32h7xx_hal_msp.c **** *                                                                              *
   6:../../../init/config/Src/stm32h7xx_hal_msp.c **** * DESCRIPTION:                                                                 *
   7:../../../init/config/Src/stm32h7xx_hal_msp.c **** *       Contains implementation of MSP initialization and de-initialization    *
   8:../../../init/config/Src/stm32h7xx_hal_msp.c **** *                routines                                                      *
   9:../../../init/config/Src/stm32h7xx_hal_msp.c **** *                                                                              *
  10:../../../init/config/Src/stm32h7xx_hal_msp.c **** *******************************************************************************/
  11:../../../init/config/Src/stm32h7xx_hal_msp.c **** 
  12:../../../init/config/Src/stm32h7xx_hal_msp.c **** 
  13:../../../init/config/Src/stm32h7xx_hal_msp.c **** /*------------------------------------------------------------------------------
  14:../../../init/config/Src/stm32h7xx_hal_msp.c **** Standard Includes                                                                     
  15:../../../init/config/Src/stm32h7xx_hal_msp.c **** ------------------------------------------------------------------------------*/
  16:../../../init/config/Src/stm32h7xx_hal_msp.c **** #include "main.h"
  17:../../../init/config/Src/stm32h7xx_hal_msp.c **** #include "sdr_error.h"
  18:../../../init/config/Src/stm32h7xx_hal_msp.c **** 
  19:../../../init/config/Src/stm32h7xx_hal_msp.c **** 
  20:../../../init/config/Src/stm32h7xx_hal_msp.c **** /*******************************************************************************
  21:../../../init/config/Src/stm32h7xx_hal_msp.c **** *                                                                              *
  22:../../../init/config/Src/stm32h7xx_hal_msp.c **** * PROCEDURE:                                                                   *
  23:../../../init/config/Src/stm32h7xx_hal_msp.c **** *       HAL_MspInit                                                            *
  24:../../../init/config/Src/stm32h7xx_hal_msp.c **** *                                                                              *
  25:../../../init/config/Src/stm32h7xx_hal_msp.c **** * DESCRIPTION:                                                                 *
  26:../../../init/config/Src/stm32h7xx_hal_msp.c **** *       Initializes the Global MSP                                             *
  27:../../../init/config/Src/stm32h7xx_hal_msp.c **** *                                                                              *
  28:../../../init/config/Src/stm32h7xx_hal_msp.c **** *******************************************************************************/
  29:../../../init/config/Src/stm32h7xx_hal_msp.c **** void HAL_MspInit
  30:../../../init/config/Src/stm32h7xx_hal_msp.c **** 	(
  31:../../../init/config/Src/stm32h7xx_hal_msp.c **** 	void
ARM GAS  /tmp/cclU5Am2.s 			page 2


  32:../../../init/config/Src/stm32h7xx_hal_msp.c **** 	)
  33:../../../init/config/Src/stm32h7xx_hal_msp.c **** {
  28              		.loc 1 33 1 view -0
  29              		.cfi_startproc
  30              		@ args = 0, pretend = 0, frame = 8
  31              		@ frame_needed = 0, uses_anonymous_args = 0
  32              		@ link register save eliminated.
  33 0000 82B0     		sub	sp, sp, #8
  34              	.LCFI0:
  35              		.cfi_def_cfa_offset 8
  34:../../../init/config/Src/stm32h7xx_hal_msp.c **** 
  35:../../../init/config/Src/stm32h7xx_hal_msp.c **** __HAL_RCC_SYSCFG_CLK_ENABLE();
  36              		.loc 1 35 1 view .LVU1
  37              	.LBB2:
  38              		.loc 1 35 1 view .LVU2
  39              		.loc 1 35 1 view .LVU3
  40 0002 074B     		ldr	r3, .L3
  41 0004 D3F8F420 		ldr	r2, [r3, #244]
  42 0008 42F00202 		orr	r2, r2, #2
  43 000c C3F8F420 		str	r2, [r3, #244]
  44              		.loc 1 35 1 view .LVU4
  45 0010 D3F8F430 		ldr	r3, [r3, #244]
  46 0014 03F00203 		and	r3, r3, #2
  47 0018 0193     		str	r3, [sp, #4]
  48              		.loc 1 35 1 view .LVU5
  49 001a 019B     		ldr	r3, [sp, #4]
  50              	.LBE2:
  51              		.loc 1 35 1 view .LVU6
  36:../../../init/config/Src/stm32h7xx_hal_msp.c **** 
  37:../../../init/config/Src/stm32h7xx_hal_msp.c **** } /* HAL_MspInit */
  52              		.loc 1 37 1 is_stmt 0 view .LVU7
  53 001c 02B0     		add	sp, sp, #8
  54              	.LCFI1:
  55              		.cfi_def_cfa_offset 0
  56              		@ sp needed
  57 001e 7047     		bx	lr
  58              	.L4:
  59              		.align	2
  60              	.L3:
  61 0020 00440258 		.word	1476543488
  62              		.cfi_endproc
  63              	.LFE144:
  65              		.section	.text.HAL_UART_MspInit,"ax",%progbits
  66              		.align	1
  67              		.global	HAL_UART_MspInit
  68              		.syntax unified
  69              		.thumb
  70              		.thumb_func
  72              	HAL_UART_MspInit:
  73              	.LVL0:
  74              	.LFB145:
  38:../../../init/config/Src/stm32h7xx_hal_msp.c **** 
  39:../../../init/config/Src/stm32h7xx_hal_msp.c **** 
  40:../../../init/config/Src/stm32h7xx_hal_msp.c **** /*******************************************************************************
  41:../../../init/config/Src/stm32h7xx_hal_msp.c **** *                                                                              *
  42:../../../init/config/Src/stm32h7xx_hal_msp.c **** * PROCEDURE:                                                                   *
  43:../../../init/config/Src/stm32h7xx_hal_msp.c **** *       HAL_UART_MspInit                                                       *
ARM GAS  /tmp/cclU5Am2.s 			page 3


  44:../../../init/config/Src/stm32h7xx_hal_msp.c **** *                                                                              *
  45:../../../init/config/Src/stm32h7xx_hal_msp.c **** * DESCRIPTION:                                                                 *
  46:../../../init/config/Src/stm32h7xx_hal_msp.c **** *       Initializes the UART MSP                                               *
  47:../../../init/config/Src/stm32h7xx_hal_msp.c **** *                                                                              *
  48:../../../init/config/Src/stm32h7xx_hal_msp.c **** *******************************************************************************/
  49:../../../init/config/Src/stm32h7xx_hal_msp.c **** void HAL_UART_MspInit
  50:../../../init/config/Src/stm32h7xx_hal_msp.c **** 	(
  51:../../../init/config/Src/stm32h7xx_hal_msp.c **** 	UART_HandleTypeDef* huart
  52:../../../init/config/Src/stm32h7xx_hal_msp.c **** 	)
  53:../../../init/config/Src/stm32h7xx_hal_msp.c **** {
  75              		.loc 1 53 1 is_stmt 1 view -0
  76              		.cfi_startproc
  77              		@ args = 0, pretend = 0, frame = 232
  78              		@ frame_needed = 0, uses_anonymous_args = 0
  79              		.loc 1 53 1 is_stmt 0 view .LVU9
  80 0000 10B5     		push	{r4, lr}
  81              	.LCFI2:
  82              		.cfi_def_cfa_offset 8
  83              		.cfi_offset 4, -8
  84              		.cfi_offset 14, -4
  85 0002 BAB0     		sub	sp, sp, #232
  86              	.LCFI3:
  87              		.cfi_def_cfa_offset 240
  88 0004 0446     		mov	r4, r0
  54:../../../init/config/Src/stm32h7xx_hal_msp.c **** GPIO_InitTypeDef GPIO_InitStruct = {0};
  89              		.loc 1 54 1 is_stmt 1 view .LVU10
  90              		.loc 1 54 18 is_stmt 0 view .LVU11
  91 0006 0021     		movs	r1, #0
  92 0008 3591     		str	r1, [sp, #212]
  93 000a 3691     		str	r1, [sp, #216]
  94 000c 3791     		str	r1, [sp, #220]
  95 000e 3891     		str	r1, [sp, #224]
  96 0010 3991     		str	r1, [sp, #228]
  55:../../../init/config/Src/stm32h7xx_hal_msp.c **** RCC_PeriphCLKInitTypeDef PeriphClkInitStruct = {0};
  97              		.loc 1 55 1 is_stmt 1 view .LVU12
  98              		.loc 1 55 26 is_stmt 0 view .LVU13
  99 0012 BC22     		movs	r2, #188
 100 0014 06A8     		add	r0, sp, #24
 101              	.LVL1:
 102              		.loc 1 55 26 view .LVU14
 103 0016 FFF7FEFF 		bl	memset
 104              	.LVL2:
  56:../../../init/config/Src/stm32h7xx_hal_msp.c **** if(huart->Instance==UART4)
 105              		.loc 1 56 1 is_stmt 1 view .LVU15
 106              		.loc 1 56 9 is_stmt 0 view .LVU16
 107 001a 2368     		ldr	r3, [r4]
 108              		.loc 1 56 3 view .LVU17
 109 001c 4F4A     		ldr	r2, .L19
 110 001e 9342     		cmp	r3, r2
 111 0020 07D0     		beq	.L13
  57:../../../init/config/Src/stm32h7xx_hal_msp.c **** 	{
  58:../../../init/config/Src/stm32h7xx_hal_msp.c **** 	/* Initializes the peripherals clock */
  59:../../../init/config/Src/stm32h7xx_hal_msp.c **** 	PeriphClkInitStruct.PeriphClockSelection = RCC_PERIPHCLK_UART4;
  60:../../../init/config/Src/stm32h7xx_hal_msp.c **** 	PeriphClkInitStruct.Usart234578ClockSelection = RCC_USART234578CLKSOURCE_D2PCLK1;
  61:../../../init/config/Src/stm32h7xx_hal_msp.c **** 	if (HAL_RCCEx_PeriphCLKConfig(&PeriphClkInitStruct) != HAL_OK)
  62:../../../init/config/Src/stm32h7xx_hal_msp.c **** 		{
  63:../../../init/config/Src/stm32h7xx_hal_msp.c **** 		Error_Handler( ERROR_UART_HAL_MSP_ERROR );
ARM GAS  /tmp/cclU5Am2.s 			page 4


  64:../../../init/config/Src/stm32h7xx_hal_msp.c **** 		}
  65:../../../init/config/Src/stm32h7xx_hal_msp.c **** 
  66:../../../init/config/Src/stm32h7xx_hal_msp.c **** 	/* Peripheral clock enable */
  67:../../../init/config/Src/stm32h7xx_hal_msp.c **** 	__HAL_RCC_UART4_CLK_ENABLE();
  68:../../../init/config/Src/stm32h7xx_hal_msp.c **** 	__HAL_RCC_GPIOA_CLK_ENABLE();
  69:../../../init/config/Src/stm32h7xx_hal_msp.c **** 
  70:../../../init/config/Src/stm32h7xx_hal_msp.c **** 	/**UART4 GPIO Configuration
  71:../../../init/config/Src/stm32h7xx_hal_msp.c **** 	PA0     ------> UART4_TX
  72:../../../init/config/Src/stm32h7xx_hal_msp.c **** 	PA1     ------> UART4_RX
  73:../../../init/config/Src/stm32h7xx_hal_msp.c **** 	*/
  74:../../../init/config/Src/stm32h7xx_hal_msp.c **** 	GPIO_InitStruct.Pin = GPIO_PIN_0|GPIO_PIN_1;
  75:../../../init/config/Src/stm32h7xx_hal_msp.c **** 	GPIO_InitStruct.Mode = GPIO_MODE_AF_PP;
  76:../../../init/config/Src/stm32h7xx_hal_msp.c **** 	GPIO_InitStruct.Pull = GPIO_NOPULL;
  77:../../../init/config/Src/stm32h7xx_hal_msp.c **** 	GPIO_InitStruct.Speed = GPIO_SPEED_FREQ_LOW;
  78:../../../init/config/Src/stm32h7xx_hal_msp.c **** 	GPIO_InitStruct.Alternate = GPIO_AF8_UART4;
  79:../../../init/config/Src/stm32h7xx_hal_msp.c **** 	HAL_GPIO_Init(GPIOA, &GPIO_InitStruct);
  80:../../../init/config/Src/stm32h7xx_hal_msp.c **** 
  81:../../../init/config/Src/stm32h7xx_hal_msp.c **** 	}
  82:../../../init/config/Src/stm32h7xx_hal_msp.c **** 
  83:../../../init/config/Src/stm32h7xx_hal_msp.c ****   else if(huart->Instance==UART5)
 112              		.loc 1 83 8 is_stmt 1 view .LVU18
 113              		.loc 1 83 10 is_stmt 0 view .LVU19
 114 0022 4F4A     		ldr	r2, .L19+4
 115 0024 9342     		cmp	r3, r2
 116 0026 35D0     		beq	.L14
  84:../../../init/config/Src/stm32h7xx_hal_msp.c **** 	{
  85:../../../init/config/Src/stm32h7xx_hal_msp.c **** 	/* Initializes the peripherals clock */
  86:../../../init/config/Src/stm32h7xx_hal_msp.c **** 	PeriphClkInitStruct.PeriphClockSelection = RCC_PERIPHCLK_UART5;
  87:../../../init/config/Src/stm32h7xx_hal_msp.c **** 	PeriphClkInitStruct.Usart234578ClockSelection = RCC_USART234578CLKSOURCE_D2PCLK1;
  88:../../../init/config/Src/stm32h7xx_hal_msp.c **** 	if (HAL_RCCEx_PeriphCLKConfig(&PeriphClkInitStruct) != HAL_OK)
  89:../../../init/config/Src/stm32h7xx_hal_msp.c **** 	{
  90:../../../init/config/Src/stm32h7xx_hal_msp.c **** 	Error_Handler( ERROR_UART_HAL_MSP_ERROR );
  91:../../../init/config/Src/stm32h7xx_hal_msp.c **** 	}
  92:../../../init/config/Src/stm32h7xx_hal_msp.c **** 
  93:../../../init/config/Src/stm32h7xx_hal_msp.c **** 	/* Peripheral clock enable */
  94:../../../init/config/Src/stm32h7xx_hal_msp.c **** 	__HAL_RCC_UART5_CLK_ENABLE();
  95:../../../init/config/Src/stm32h7xx_hal_msp.c **** 	__HAL_RCC_GPIOB_CLK_ENABLE();
  96:../../../init/config/Src/stm32h7xx_hal_msp.c **** 
  97:../../../init/config/Src/stm32h7xx_hal_msp.c **** 	/**UART5 GPIO Configuration
  98:../../../init/config/Src/stm32h7xx_hal_msp.c **** 	PB12     ------> UART5_RX
  99:../../../init/config/Src/stm32h7xx_hal_msp.c **** 	PB13     ------> UART5_TX */
 100:../../../init/config/Src/stm32h7xx_hal_msp.c **** 	GPIO_InitStruct.Pin = GPIO_PIN_12|GPIO_PIN_13;
 101:../../../init/config/Src/stm32h7xx_hal_msp.c **** 	GPIO_InitStruct.Mode = GPIO_MODE_AF_PP;
 102:../../../init/config/Src/stm32h7xx_hal_msp.c **** 	GPIO_InitStruct.Pull = GPIO_NOPULL;
 103:../../../init/config/Src/stm32h7xx_hal_msp.c **** 	GPIO_InitStruct.Speed = GPIO_SPEED_FREQ_LOW;
 104:../../../init/config/Src/stm32h7xx_hal_msp.c **** 	GPIO_InitStruct.Alternate = GPIO_AF14_UART5;
 105:../../../init/config/Src/stm32h7xx_hal_msp.c **** 	HAL_GPIO_Init(GPIOB, &GPIO_InitStruct);
 106:../../../init/config/Src/stm32h7xx_hal_msp.c **** 	}
 107:../../../init/config/Src/stm32h7xx_hal_msp.c **** else if(huart->Instance==USART1)
 117              		.loc 1 107 6 is_stmt 1 view .LVU20
 118              		.loc 1 107 8 is_stmt 0 view .LVU21
 119 0028 4E4A     		ldr	r2, .L19+8
 120 002a 9342     		cmp	r3, r2
 121 002c 64D0     		beq	.L15
 122              	.L5:
 108:../../../init/config/Src/stm32h7xx_hal_msp.c **** 	{
 109:../../../init/config/Src/stm32h7xx_hal_msp.c **** 
ARM GAS  /tmp/cclU5Am2.s 			page 5


 110:../../../init/config/Src/stm32h7xx_hal_msp.c **** 	/* Initializes the peripherals clock */
 111:../../../init/config/Src/stm32h7xx_hal_msp.c **** 	PeriphClkInitStruct.PeriphClockSelection = RCC_PERIPHCLK_USART1;
 112:../../../init/config/Src/stm32h7xx_hal_msp.c **** 	PeriphClkInitStruct.Usart16ClockSelection = RCC_USART16CLKSOURCE_D2PCLK2;
 113:../../../init/config/Src/stm32h7xx_hal_msp.c **** 	if (HAL_RCCEx_PeriphCLKConfig(&PeriphClkInitStruct) != HAL_OK)
 114:../../../init/config/Src/stm32h7xx_hal_msp.c **** 		{
 115:../../../init/config/Src/stm32h7xx_hal_msp.c **** 		Error_Handler( ERROR_UART_HAL_MSP_ERROR );
 116:../../../init/config/Src/stm32h7xx_hal_msp.c **** 		}
 117:../../../init/config/Src/stm32h7xx_hal_msp.c **** 
 118:../../../init/config/Src/stm32h7xx_hal_msp.c **** 	/* Peripheral clock enable */
 119:../../../init/config/Src/stm32h7xx_hal_msp.c **** 	__HAL_RCC_USART1_CLK_ENABLE();
 120:../../../init/config/Src/stm32h7xx_hal_msp.c **** 
 121:../../../init/config/Src/stm32h7xx_hal_msp.c **** 	__HAL_RCC_GPIOA_CLK_ENABLE();
 122:../../../init/config/Src/stm32h7xx_hal_msp.c **** 	/**USART1 GPIO Configuration
 123:../../../init/config/Src/stm32h7xx_hal_msp.c **** 	PA9     ------> USART1_TX
 124:../../../init/config/Src/stm32h7xx_hal_msp.c **** 	PA10     ------> USART1_RX
 125:../../../init/config/Src/stm32h7xx_hal_msp.c **** 	*/
 126:../../../init/config/Src/stm32h7xx_hal_msp.c **** 	GPIO_InitStruct.Pin = GPIO_PIN_9|GPIO_PIN_10;
 127:../../../init/config/Src/stm32h7xx_hal_msp.c **** 	GPIO_InitStruct.Mode = GPIO_MODE_AF_PP;
 128:../../../init/config/Src/stm32h7xx_hal_msp.c **** 	GPIO_InitStruct.Pull = GPIO_NOPULL;
 129:../../../init/config/Src/stm32h7xx_hal_msp.c **** 	GPIO_InitStruct.Speed = GPIO_SPEED_FREQ_LOW;
 130:../../../init/config/Src/stm32h7xx_hal_msp.c **** 	GPIO_InitStruct.Alternate = GPIO_AF7_USART1;
 131:../../../init/config/Src/stm32h7xx_hal_msp.c **** 	HAL_GPIO_Init(GPIOA, &GPIO_InitStruct);
 132:../../../init/config/Src/stm32h7xx_hal_msp.c **** 
 133:../../../init/config/Src/stm32h7xx_hal_msp.c **** 	}
 134:../../../init/config/Src/stm32h7xx_hal_msp.c **** 
 135:../../../init/config/Src/stm32h7xx_hal_msp.c **** } /* HAL_UART_MspInit */
 123              		.loc 1 135 1 view .LVU22
 124 002e 3AB0     		add	sp, sp, #232
 125              	.LCFI4:
 126              		.cfi_remember_state
 127              		.cfi_def_cfa_offset 8
 128              		@ sp needed
 129 0030 10BD     		pop	{r4, pc}
 130              	.LVL3:
 131              	.L13:
 132              	.LCFI5:
 133              		.cfi_restore_state
  59:../../../init/config/Src/stm32h7xx_hal_msp.c **** 	PeriphClkInitStruct.Usart234578ClockSelection = RCC_USART234578CLKSOURCE_D2PCLK1;
 134              		.loc 1 59 2 is_stmt 1 view .LVU23
  59:../../../init/config/Src/stm32h7xx_hal_msp.c **** 	PeriphClkInitStruct.Usart234578ClockSelection = RCC_USART234578CLKSOURCE_D2PCLK1;
 135              		.loc 1 59 43 is_stmt 0 view .LVU24
 136 0032 0223     		movs	r3, #2
 137 0034 0693     		str	r3, [sp, #24]
  60:../../../init/config/Src/stm32h7xx_hal_msp.c **** 	if (HAL_RCCEx_PeriphCLKConfig(&PeriphClkInitStruct) != HAL_OK)
 138              		.loc 1 60 2 is_stmt 1 view .LVU25
  61:../../../init/config/Src/stm32h7xx_hal_msp.c **** 		{
 139              		.loc 1 61 2 view .LVU26
  61:../../../init/config/Src/stm32h7xx_hal_msp.c **** 		{
 140              		.loc 1 61 6 is_stmt 0 view .LVU27
 141 0036 06A8     		add	r0, sp, #24
 142 0038 FFF7FEFF 		bl	HAL_RCCEx_PeriphCLKConfig
 143              	.LVL4:
  61:../../../init/config/Src/stm32h7xx_hal_msp.c **** 		{
 144              		.loc 1 61 5 view .LVU28
 145 003c 30BB     		cbnz	r0, .L16
 146              	.L7:
  67:../../../init/config/Src/stm32h7xx_hal_msp.c **** 	__HAL_RCC_GPIOA_CLK_ENABLE();
ARM GAS  /tmp/cclU5Am2.s 			page 6


 147              		.loc 1 67 2 is_stmt 1 view .LVU29
 148              	.LBB3:
  67:../../../init/config/Src/stm32h7xx_hal_msp.c **** 	__HAL_RCC_GPIOA_CLK_ENABLE();
 149              		.loc 1 67 2 view .LVU30
  67:../../../init/config/Src/stm32h7xx_hal_msp.c **** 	__HAL_RCC_GPIOA_CLK_ENABLE();
 150              		.loc 1 67 2 view .LVU31
 151 003e 4A4B     		ldr	r3, .L19+12
 152 0040 D3F8E820 		ldr	r2, [r3, #232]
 153 0044 42F40022 		orr	r2, r2, #524288
 154 0048 C3F8E820 		str	r2, [r3, #232]
  67:../../../init/config/Src/stm32h7xx_hal_msp.c **** 	__HAL_RCC_GPIOA_CLK_ENABLE();
 155              		.loc 1 67 2 view .LVU32
 156 004c D3F8E820 		ldr	r2, [r3, #232]
 157 0050 02F40022 		and	r2, r2, #524288
 158 0054 0092     		str	r2, [sp]
  67:../../../init/config/Src/stm32h7xx_hal_msp.c **** 	__HAL_RCC_GPIOA_CLK_ENABLE();
 159              		.loc 1 67 2 view .LVU33
 160 0056 009A     		ldr	r2, [sp]
 161              	.LBE3:
  67:../../../init/config/Src/stm32h7xx_hal_msp.c **** 	__HAL_RCC_GPIOA_CLK_ENABLE();
 162              		.loc 1 67 2 view .LVU34
  68:../../../init/config/Src/stm32h7xx_hal_msp.c **** 
 163              		.loc 1 68 2 view .LVU35
 164              	.LBB4:
  68:../../../init/config/Src/stm32h7xx_hal_msp.c **** 
 165              		.loc 1 68 2 view .LVU36
  68:../../../init/config/Src/stm32h7xx_hal_msp.c **** 
 166              		.loc 1 68 2 view .LVU37
 167 0058 D3F8E020 		ldr	r2, [r3, #224]
 168 005c 42F00102 		orr	r2, r2, #1
 169 0060 C3F8E020 		str	r2, [r3, #224]
  68:../../../init/config/Src/stm32h7xx_hal_msp.c **** 
 170              		.loc 1 68 2 view .LVU38
 171 0064 D3F8E030 		ldr	r3, [r3, #224]
 172 0068 03F00103 		and	r3, r3, #1
 173 006c 0193     		str	r3, [sp, #4]
  68:../../../init/config/Src/stm32h7xx_hal_msp.c **** 
 174              		.loc 1 68 2 view .LVU39
 175 006e 019B     		ldr	r3, [sp, #4]
 176              	.LBE4:
  68:../../../init/config/Src/stm32h7xx_hal_msp.c **** 
 177              		.loc 1 68 2 view .LVU40
  74:../../../init/config/Src/stm32h7xx_hal_msp.c **** 	GPIO_InitStruct.Mode = GPIO_MODE_AF_PP;
 178              		.loc 1 74 2 view .LVU41
  74:../../../init/config/Src/stm32h7xx_hal_msp.c **** 	GPIO_InitStruct.Mode = GPIO_MODE_AF_PP;
 179              		.loc 1 74 22 is_stmt 0 view .LVU42
 180 0070 0323     		movs	r3, #3
 181 0072 3593     		str	r3, [sp, #212]
  75:../../../init/config/Src/stm32h7xx_hal_msp.c **** 	GPIO_InitStruct.Pull = GPIO_NOPULL;
 182              		.loc 1 75 2 is_stmt 1 view .LVU43
  75:../../../init/config/Src/stm32h7xx_hal_msp.c **** 	GPIO_InitStruct.Pull = GPIO_NOPULL;
 183              		.loc 1 75 23 is_stmt 0 view .LVU44
 184 0074 0223     		movs	r3, #2
 185 0076 3693     		str	r3, [sp, #216]
  76:../../../init/config/Src/stm32h7xx_hal_msp.c **** 	GPIO_InitStruct.Speed = GPIO_SPEED_FREQ_LOW;
 186              		.loc 1 76 2 is_stmt 1 view .LVU45
  76:../../../init/config/Src/stm32h7xx_hal_msp.c **** 	GPIO_InitStruct.Speed = GPIO_SPEED_FREQ_LOW;
ARM GAS  /tmp/cclU5Am2.s 			page 7


 187              		.loc 1 76 23 is_stmt 0 view .LVU46
 188 0078 0023     		movs	r3, #0
 189 007a 3793     		str	r3, [sp, #220]
  77:../../../init/config/Src/stm32h7xx_hal_msp.c **** 	GPIO_InitStruct.Alternate = GPIO_AF8_UART4;
 190              		.loc 1 77 2 is_stmt 1 view .LVU47
  77:../../../init/config/Src/stm32h7xx_hal_msp.c **** 	GPIO_InitStruct.Alternate = GPIO_AF8_UART4;
 191              		.loc 1 77 24 is_stmt 0 view .LVU48
 192 007c 3893     		str	r3, [sp, #224]
  78:../../../init/config/Src/stm32h7xx_hal_msp.c **** 	HAL_GPIO_Init(GPIOA, &GPIO_InitStruct);
 193              		.loc 1 78 2 is_stmt 1 view .LVU49
  78:../../../init/config/Src/stm32h7xx_hal_msp.c **** 	HAL_GPIO_Init(GPIOA, &GPIO_InitStruct);
 194              		.loc 1 78 28 is_stmt 0 view .LVU50
 195 007e 0823     		movs	r3, #8
 196 0080 3993     		str	r3, [sp, #228]
  79:../../../init/config/Src/stm32h7xx_hal_msp.c **** 
 197              		.loc 1 79 2 is_stmt 1 view .LVU51
 198 0082 35A9     		add	r1, sp, #212
 199 0084 3948     		ldr	r0, .L19+16
 200 0086 FFF7FEFF 		bl	HAL_GPIO_Init
 201              	.LVL5:
 202 008a D0E7     		b	.L5
 203              	.L16:
  63:../../../init/config/Src/stm32h7xx_hal_msp.c **** 		}
 204              		.loc 1 63 3 view .LVU52
 205 008c 1420     		movs	r0, #20
 206 008e FFF7FEFF 		bl	Error_Handler
 207              	.LVL6:
 208 0092 D4E7     		b	.L7
 209              	.L14:
  86:../../../init/config/Src/stm32h7xx_hal_msp.c **** 	PeriphClkInitStruct.Usart234578ClockSelection = RCC_USART234578CLKSOURCE_D2PCLK1;
 210              		.loc 1 86 2 view .LVU53
  86:../../../init/config/Src/stm32h7xx_hal_msp.c **** 	PeriphClkInitStruct.Usart234578ClockSelection = RCC_USART234578CLKSOURCE_D2PCLK1;
 211              		.loc 1 86 43 is_stmt 0 view .LVU54
 212 0094 0223     		movs	r3, #2
 213 0096 0693     		str	r3, [sp, #24]
  87:../../../init/config/Src/stm32h7xx_hal_msp.c **** 	if (HAL_RCCEx_PeriphCLKConfig(&PeriphClkInitStruct) != HAL_OK)
 214              		.loc 1 87 2 is_stmt 1 view .LVU55
  88:../../../init/config/Src/stm32h7xx_hal_msp.c **** 	{
 215              		.loc 1 88 2 view .LVU56
  88:../../../init/config/Src/stm32h7xx_hal_msp.c **** 	{
 216              		.loc 1 88 6 is_stmt 0 view .LVU57
 217 0098 06A8     		add	r0, sp, #24
 218 009a FFF7FEFF 		bl	HAL_RCCEx_PeriphCLKConfig
 219              	.LVL7:
  88:../../../init/config/Src/stm32h7xx_hal_msp.c **** 	{
 220              		.loc 1 88 5 view .LVU58
 221 009e 38BB     		cbnz	r0, .L17
 222              	.L10:
  94:../../../init/config/Src/stm32h7xx_hal_msp.c **** 	__HAL_RCC_GPIOB_CLK_ENABLE();
 223              		.loc 1 94 2 is_stmt 1 view .LVU59
 224              	.LBB5:
  94:../../../init/config/Src/stm32h7xx_hal_msp.c **** 	__HAL_RCC_GPIOB_CLK_ENABLE();
 225              		.loc 1 94 2 view .LVU60
  94:../../../init/config/Src/stm32h7xx_hal_msp.c **** 	__HAL_RCC_GPIOB_CLK_ENABLE();
 226              		.loc 1 94 2 view .LVU61
 227 00a0 314B     		ldr	r3, .L19+12
 228 00a2 D3F8E820 		ldr	r2, [r3, #232]
ARM GAS  /tmp/cclU5Am2.s 			page 8


 229 00a6 42F48012 		orr	r2, r2, #1048576
 230 00aa C3F8E820 		str	r2, [r3, #232]
  94:../../../init/config/Src/stm32h7xx_hal_msp.c **** 	__HAL_RCC_GPIOB_CLK_ENABLE();
 231              		.loc 1 94 2 view .LVU62
 232 00ae D3F8E820 		ldr	r2, [r3, #232]
 233 00b2 02F48012 		and	r2, r2, #1048576
 234 00b6 0292     		str	r2, [sp, #8]
  94:../../../init/config/Src/stm32h7xx_hal_msp.c **** 	__HAL_RCC_GPIOB_CLK_ENABLE();
 235              		.loc 1 94 2 view .LVU63
 236 00b8 029A     		ldr	r2, [sp, #8]
 237              	.LBE5:
  94:../../../init/config/Src/stm32h7xx_hal_msp.c **** 	__HAL_RCC_GPIOB_CLK_ENABLE();
 238              		.loc 1 94 2 view .LVU64
  95:../../../init/config/Src/stm32h7xx_hal_msp.c **** 
 239              		.loc 1 95 2 view .LVU65
 240              	.LBB6:
  95:../../../init/config/Src/stm32h7xx_hal_msp.c **** 
 241              		.loc 1 95 2 view .LVU66
  95:../../../init/config/Src/stm32h7xx_hal_msp.c **** 
 242              		.loc 1 95 2 view .LVU67
 243 00ba D3F8E020 		ldr	r2, [r3, #224]
 244 00be 42F00202 		orr	r2, r2, #2
 245 00c2 C3F8E020 		str	r2, [r3, #224]
  95:../../../init/config/Src/stm32h7xx_hal_msp.c **** 
 246              		.loc 1 95 2 view .LVU68
 247 00c6 D3F8E030 		ldr	r3, [r3, #224]
 248 00ca 03F00203 		and	r3, r3, #2
 249 00ce 0393     		str	r3, [sp, #12]
  95:../../../init/config/Src/stm32h7xx_hal_msp.c **** 
 250              		.loc 1 95 2 view .LVU69
 251 00d0 039B     		ldr	r3, [sp, #12]
 252              	.LBE6:
  95:../../../init/config/Src/stm32h7xx_hal_msp.c **** 
 253              		.loc 1 95 2 view .LVU70
 100:../../../init/config/Src/stm32h7xx_hal_msp.c **** 	GPIO_InitStruct.Mode = GPIO_MODE_AF_PP;
 254              		.loc 1 100 2 view .LVU71
 100:../../../init/config/Src/stm32h7xx_hal_msp.c **** 	GPIO_InitStruct.Mode = GPIO_MODE_AF_PP;
 255              		.loc 1 100 22 is_stmt 0 view .LVU72
 256 00d2 4FF44053 		mov	r3, #12288
 257 00d6 3593     		str	r3, [sp, #212]
 101:../../../init/config/Src/stm32h7xx_hal_msp.c **** 	GPIO_InitStruct.Pull = GPIO_NOPULL;
 258              		.loc 1 101 2 is_stmt 1 view .LVU73
 101:../../../init/config/Src/stm32h7xx_hal_msp.c **** 	GPIO_InitStruct.Pull = GPIO_NOPULL;
 259              		.loc 1 101 23 is_stmt 0 view .LVU74
 260 00d8 0223     		movs	r3, #2
 261 00da 3693     		str	r3, [sp, #216]
 102:../../../init/config/Src/stm32h7xx_hal_msp.c **** 	GPIO_InitStruct.Speed = GPIO_SPEED_FREQ_LOW;
 262              		.loc 1 102 2 is_stmt 1 view .LVU75
 102:../../../init/config/Src/stm32h7xx_hal_msp.c **** 	GPIO_InitStruct.Speed = GPIO_SPEED_FREQ_LOW;
 263              		.loc 1 102 23 is_stmt 0 view .LVU76
 264 00dc 0023     		movs	r3, #0
 265 00de 3793     		str	r3, [sp, #220]
 103:../../../init/config/Src/stm32h7xx_hal_msp.c **** 	GPIO_InitStruct.Alternate = GPIO_AF14_UART5;
 266              		.loc 1 103 2 is_stmt 1 view .LVU77
 103:../../../init/config/Src/stm32h7xx_hal_msp.c **** 	GPIO_InitStruct.Alternate = GPIO_AF14_UART5;
 267              		.loc 1 103 24 is_stmt 0 view .LVU78
 268 00e0 3893     		str	r3, [sp, #224]
ARM GAS  /tmp/cclU5Am2.s 			page 9


 104:../../../init/config/Src/stm32h7xx_hal_msp.c **** 	HAL_GPIO_Init(GPIOB, &GPIO_InitStruct);
 269              		.loc 1 104 2 is_stmt 1 view .LVU79
 104:../../../init/config/Src/stm32h7xx_hal_msp.c **** 	HAL_GPIO_Init(GPIOB, &GPIO_InitStruct);
 270              		.loc 1 104 28 is_stmt 0 view .LVU80
 271 00e2 0E23     		movs	r3, #14
 272 00e4 3993     		str	r3, [sp, #228]
 105:../../../init/config/Src/stm32h7xx_hal_msp.c **** 	}
 273              		.loc 1 105 2 is_stmt 1 view .LVU81
 274 00e6 35A9     		add	r1, sp, #212
 275 00e8 2148     		ldr	r0, .L19+20
 276 00ea FFF7FEFF 		bl	HAL_GPIO_Init
 277              	.LVL8:
 278 00ee 9EE7     		b	.L5
 279              	.L17:
  90:../../../init/config/Src/stm32h7xx_hal_msp.c **** 	}
 280              		.loc 1 90 2 view .LVU82
 281 00f0 1420     		movs	r0, #20
 282 00f2 FFF7FEFF 		bl	Error_Handler
 283              	.LVL9:
 284 00f6 D3E7     		b	.L10
 285              	.L15:
 111:../../../init/config/Src/stm32h7xx_hal_msp.c **** 	PeriphClkInitStruct.Usart16ClockSelection = RCC_USART16CLKSOURCE_D2PCLK2;
 286              		.loc 1 111 2 view .LVU83
 111:../../../init/config/Src/stm32h7xx_hal_msp.c **** 	PeriphClkInitStruct.Usart16ClockSelection = RCC_USART16CLKSOURCE_D2PCLK2;
 287              		.loc 1 111 43 is_stmt 0 view .LVU84
 288 00f8 0123     		movs	r3, #1
 289 00fa 0693     		str	r3, [sp, #24]
 112:../../../init/config/Src/stm32h7xx_hal_msp.c **** 	if (HAL_RCCEx_PeriphCLKConfig(&PeriphClkInitStruct) != HAL_OK)
 290              		.loc 1 112 2 is_stmt 1 view .LVU85
 113:../../../init/config/Src/stm32h7xx_hal_msp.c **** 		{
 291              		.loc 1 113 2 view .LVU86
 113:../../../init/config/Src/stm32h7xx_hal_msp.c **** 		{
 292              		.loc 1 113 6 is_stmt 0 view .LVU87
 293 00fc 06A8     		add	r0, sp, #24
 294 00fe FFF7FEFF 		bl	HAL_RCCEx_PeriphCLKConfig
 295              	.LVL10:
 113:../../../init/config/Src/stm32h7xx_hal_msp.c **** 		{
 296              		.loc 1 113 5 view .LVU88
 297 0102 38BB     		cbnz	r0, .L18
 298              	.L11:
 119:../../../init/config/Src/stm32h7xx_hal_msp.c **** 
 299              		.loc 1 119 2 is_stmt 1 view .LVU89
 300              	.LBB7:
 119:../../../init/config/Src/stm32h7xx_hal_msp.c **** 
 301              		.loc 1 119 2 view .LVU90
 119:../../../init/config/Src/stm32h7xx_hal_msp.c **** 
 302              		.loc 1 119 2 view .LVU91
 303 0104 184B     		ldr	r3, .L19+12
 304 0106 D3F8F020 		ldr	r2, [r3, #240]
 305 010a 42F01002 		orr	r2, r2, #16
 306 010e C3F8F020 		str	r2, [r3, #240]
 119:../../../init/config/Src/stm32h7xx_hal_msp.c **** 
 307              		.loc 1 119 2 view .LVU92
 308 0112 D3F8F020 		ldr	r2, [r3, #240]
 309 0116 02F01002 		and	r2, r2, #16
 310 011a 0492     		str	r2, [sp, #16]
 119:../../../init/config/Src/stm32h7xx_hal_msp.c **** 
ARM GAS  /tmp/cclU5Am2.s 			page 10


 311              		.loc 1 119 2 view .LVU93
 312 011c 049A     		ldr	r2, [sp, #16]
 313              	.LBE7:
 119:../../../init/config/Src/stm32h7xx_hal_msp.c **** 
 314              		.loc 1 119 2 view .LVU94
 121:../../../init/config/Src/stm32h7xx_hal_msp.c **** 	/**USART1 GPIO Configuration
 315              		.loc 1 121 2 view .LVU95
 316              	.LBB8:
 121:../../../init/config/Src/stm32h7xx_hal_msp.c **** 	/**USART1 GPIO Configuration
 317              		.loc 1 121 2 view .LVU96
 121:../../../init/config/Src/stm32h7xx_hal_msp.c **** 	/**USART1 GPIO Configuration
 318              		.loc 1 121 2 view .LVU97
 319 011e D3F8E020 		ldr	r2, [r3, #224]
 320 0122 42F00102 		orr	r2, r2, #1
 321 0126 C3F8E020 		str	r2, [r3, #224]
 121:../../../init/config/Src/stm32h7xx_hal_msp.c **** 	/**USART1 GPIO Configuration
 322              		.loc 1 121 2 view .LVU98
 323 012a D3F8E030 		ldr	r3, [r3, #224]
 324 012e 03F00103 		and	r3, r3, #1
 325 0132 0593     		str	r3, [sp, #20]
 121:../../../init/config/Src/stm32h7xx_hal_msp.c **** 	/**USART1 GPIO Configuration
 326              		.loc 1 121 2 view .LVU99
 327 0134 059B     		ldr	r3, [sp, #20]
 328              	.LBE8:
 121:../../../init/config/Src/stm32h7xx_hal_msp.c **** 	/**USART1 GPIO Configuration
 329              		.loc 1 121 2 view .LVU100
 126:../../../init/config/Src/stm32h7xx_hal_msp.c **** 	GPIO_InitStruct.Mode = GPIO_MODE_AF_PP;
 330              		.loc 1 126 2 view .LVU101
 126:../../../init/config/Src/stm32h7xx_hal_msp.c **** 	GPIO_InitStruct.Mode = GPIO_MODE_AF_PP;
 331              		.loc 1 126 22 is_stmt 0 view .LVU102
 332 0136 4FF4C063 		mov	r3, #1536
 333 013a 3593     		str	r3, [sp, #212]
 127:../../../init/config/Src/stm32h7xx_hal_msp.c **** 	GPIO_InitStruct.Pull = GPIO_NOPULL;
 334              		.loc 1 127 2 is_stmt 1 view .LVU103
 127:../../../init/config/Src/stm32h7xx_hal_msp.c **** 	GPIO_InitStruct.Pull = GPIO_NOPULL;
 335              		.loc 1 127 23 is_stmt 0 view .LVU104
 336 013c 0223     		movs	r3, #2
 337 013e 3693     		str	r3, [sp, #216]
 128:../../../init/config/Src/stm32h7xx_hal_msp.c **** 	GPIO_InitStruct.Speed = GPIO_SPEED_FREQ_LOW;
 338              		.loc 1 128 2 is_stmt 1 view .LVU105
 128:../../../init/config/Src/stm32h7xx_hal_msp.c **** 	GPIO_InitStruct.Speed = GPIO_SPEED_FREQ_LOW;
 339              		.loc 1 128 23 is_stmt 0 view .LVU106
 340 0140 0023     		movs	r3, #0
 341 0142 3793     		str	r3, [sp, #220]
 129:../../../init/config/Src/stm32h7xx_hal_msp.c **** 	GPIO_InitStruct.Alternate = GPIO_AF7_USART1;
 342              		.loc 1 129 2 is_stmt 1 view .LVU107
 129:../../../init/config/Src/stm32h7xx_hal_msp.c **** 	GPIO_InitStruct.Alternate = GPIO_AF7_USART1;
 343              		.loc 1 129 24 is_stmt 0 view .LVU108
 344 0144 3893     		str	r3, [sp, #224]
 130:../../../init/config/Src/stm32h7xx_hal_msp.c **** 	HAL_GPIO_Init(GPIOA, &GPIO_InitStruct);
 345              		.loc 1 130 2 is_stmt 1 view .LVU109
 130:../../../init/config/Src/stm32h7xx_hal_msp.c **** 	HAL_GPIO_Init(GPIOA, &GPIO_InitStruct);
 346              		.loc 1 130 28 is_stmt 0 view .LVU110
 347 0146 0723     		movs	r3, #7
 348 0148 3993     		str	r3, [sp, #228]
 131:../../../init/config/Src/stm32h7xx_hal_msp.c **** 
 349              		.loc 1 131 2 is_stmt 1 view .LVU111
ARM GAS  /tmp/cclU5Am2.s 			page 11


 350 014a 35A9     		add	r1, sp, #212
 351 014c 0748     		ldr	r0, .L19+16
 352 014e FFF7FEFF 		bl	HAL_GPIO_Init
 353              	.LVL11:
 354              		.loc 1 135 1 is_stmt 0 view .LVU112
 355 0152 6CE7     		b	.L5
 356              	.L18:
 115:../../../init/config/Src/stm32h7xx_hal_msp.c **** 		}
 357              		.loc 1 115 3 is_stmt 1 view .LVU113
 358 0154 1420     		movs	r0, #20
 359 0156 FFF7FEFF 		bl	Error_Handler
 360              	.LVL12:
 361 015a D3E7     		b	.L11
 362              	.L20:
 363              		.align	2
 364              	.L19:
 365 015c 004C0040 		.word	1073761280
 366 0160 00500040 		.word	1073762304
 367 0164 00100140 		.word	1073811456
 368 0168 00440258 		.word	1476543488
 369 016c 00000258 		.word	1476526080
 370 0170 00040258 		.word	1476527104
 371              		.cfi_endproc
 372              	.LFE145:
 374              		.section	.text.HAL_UART_MspDeInit,"ax",%progbits
 375              		.align	1
 376              		.global	HAL_UART_MspDeInit
 377              		.syntax unified
 378              		.thumb
 379              		.thumb_func
 381              	HAL_UART_MspDeInit:
 382              	.LVL13:
 383              	.LFB146:
 136:../../../init/config/Src/stm32h7xx_hal_msp.c **** 
 137:../../../init/config/Src/stm32h7xx_hal_msp.c **** 
 138:../../../init/config/Src/stm32h7xx_hal_msp.c **** /*******************************************************************************
 139:../../../init/config/Src/stm32h7xx_hal_msp.c **** *                                                                              *
 140:../../../init/config/Src/stm32h7xx_hal_msp.c **** * PROCEDURE:                                                                   *
 141:../../../init/config/Src/stm32h7xx_hal_msp.c **** *       HAL_UART_MspDeInit                                                     *
 142:../../../init/config/Src/stm32h7xx_hal_msp.c **** *                                                                              *
 143:../../../init/config/Src/stm32h7xx_hal_msp.c **** * DESCRIPTION:                                                                 *
 144:../../../init/config/Src/stm32h7xx_hal_msp.c **** *       Initializes the UART MSP                                               *
 145:../../../init/config/Src/stm32h7xx_hal_msp.c **** *                                                                              *
 146:../../../init/config/Src/stm32h7xx_hal_msp.c **** *******************************************************************************/
 147:../../../init/config/Src/stm32h7xx_hal_msp.c **** void HAL_UART_MspDeInit
 148:../../../init/config/Src/stm32h7xx_hal_msp.c **** 	(
 149:../../../init/config/Src/stm32h7xx_hal_msp.c **** 	UART_HandleTypeDef* huart
 150:../../../init/config/Src/stm32h7xx_hal_msp.c **** 	)
 151:../../../init/config/Src/stm32h7xx_hal_msp.c **** {
 384              		.loc 1 151 1 view -0
 385              		.cfi_startproc
 386              		@ args = 0, pretend = 0, frame = 0
 387              		@ frame_needed = 0, uses_anonymous_args = 0
 388              		.loc 1 151 1 is_stmt 0 view .LVU115
 389 0000 08B5     		push	{r3, lr}
 390              	.LCFI6:
 391              		.cfi_def_cfa_offset 8
ARM GAS  /tmp/cclU5Am2.s 			page 12


 392              		.cfi_offset 3, -8
 393              		.cfi_offset 14, -4
 152:../../../init/config/Src/stm32h7xx_hal_msp.c **** if(huart->Instance==UART4)
 394              		.loc 1 152 1 is_stmt 1 view .LVU116
 395              		.loc 1 152 9 is_stmt 0 view .LVU117
 396 0002 0368     		ldr	r3, [r0]
 397              		.loc 1 152 3 view .LVU118
 398 0004 174A     		ldr	r2, .L29
 399 0006 9342     		cmp	r3, r2
 400 0008 06D0     		beq	.L26
 153:../../../init/config/Src/stm32h7xx_hal_msp.c **** 	{
 154:../../../init/config/Src/stm32h7xx_hal_msp.c **** 	/* Peripheral clock disable */
 155:../../../init/config/Src/stm32h7xx_hal_msp.c **** 	__HAL_RCC_UART4_CLK_DISABLE();
 156:../../../init/config/Src/stm32h7xx_hal_msp.c **** 
 157:../../../init/config/Src/stm32h7xx_hal_msp.c **** 	/**UART4 GPIO Configuration
 158:../../../init/config/Src/stm32h7xx_hal_msp.c **** 	PA0     ------> UART4_TX
 159:../../../init/config/Src/stm32h7xx_hal_msp.c **** 	PA1     ------> UART4_RX
 160:../../../init/config/Src/stm32h7xx_hal_msp.c **** 	*/
 161:../../../init/config/Src/stm32h7xx_hal_msp.c **** 	HAL_GPIO_DeInit(GPIOA, GPIO_PIN_0|GPIO_PIN_1);
 162:../../../init/config/Src/stm32h7xx_hal_msp.c **** 	}
 163:../../../init/config/Src/stm32h7xx_hal_msp.c **** else if(huart->Instance==UART5)
 401              		.loc 1 163 6 is_stmt 1 view .LVU119
 402              		.loc 1 163 8 is_stmt 0 view .LVU120
 403 000a 174A     		ldr	r2, .L29+4
 404 000c 9342     		cmp	r3, r2
 405 000e 0FD0     		beq	.L27
 164:../../../init/config/Src/stm32h7xx_hal_msp.c **** 	{
 165:../../../init/config/Src/stm32h7xx_hal_msp.c **** 	/* Peripheral clock disable */
 166:../../../init/config/Src/stm32h7xx_hal_msp.c **** 	__HAL_RCC_UART5_CLK_DISABLE();
 167:../../../init/config/Src/stm32h7xx_hal_msp.c **** 
 168:../../../init/config/Src/stm32h7xx_hal_msp.c **** 	/**UART5 GPIO Configuration
 169:../../../init/config/Src/stm32h7xx_hal_msp.c **** 	PB12     ------> UART5_RX
 170:../../../init/config/Src/stm32h7xx_hal_msp.c **** 	PB13     ------> UART5_TX */
 171:../../../init/config/Src/stm32h7xx_hal_msp.c **** 	HAL_GPIO_DeInit(GPIOB, GPIO_PIN_12|GPIO_PIN_13);
 172:../../../init/config/Src/stm32h7xx_hal_msp.c **** 	}
 173:../../../init/config/Src/stm32h7xx_hal_msp.c **** else if(huart->Instance==USART1)
 406              		.loc 1 173 6 is_stmt 1 view .LVU121
 407              		.loc 1 173 8 is_stmt 0 view .LVU122
 408 0010 164A     		ldr	r2, .L29+8
 409 0012 9342     		cmp	r3, r2
 410 0014 19D0     		beq	.L28
 411              	.LVL14:
 412              	.L21:
 174:../../../init/config/Src/stm32h7xx_hal_msp.c **** 	{
 175:../../../init/config/Src/stm32h7xx_hal_msp.c **** 	/* Peripheral clock disable */
 176:../../../init/config/Src/stm32h7xx_hal_msp.c **** 	__HAL_RCC_USART1_CLK_DISABLE();
 177:../../../init/config/Src/stm32h7xx_hal_msp.c **** 
 178:../../../init/config/Src/stm32h7xx_hal_msp.c **** 	/**USART1 GPIO Configuration
 179:../../../init/config/Src/stm32h7xx_hal_msp.c **** 	PA9     ------> USART1_TX
 180:../../../init/config/Src/stm32h7xx_hal_msp.c **** 	PA10     ------> USART1_RX
 181:../../../init/config/Src/stm32h7xx_hal_msp.c **** 	*/
 182:../../../init/config/Src/stm32h7xx_hal_msp.c **** 	HAL_GPIO_DeInit(GPIOA, GPIO_PIN_9|GPIO_PIN_10);
 183:../../../init/config/Src/stm32h7xx_hal_msp.c **** 
 184:../../../init/config/Src/stm32h7xx_hal_msp.c **** 	}
 185:../../../init/config/Src/stm32h7xx_hal_msp.c **** 
 186:../../../init/config/Src/stm32h7xx_hal_msp.c **** } /* HAL_UART_MspDeInit */
 413              		.loc 1 186 1 view .LVU123
ARM GAS  /tmp/cclU5Am2.s 			page 13


 414 0016 08BD     		pop	{r3, pc}
 415              	.LVL15:
 416              	.L26:
 155:../../../init/config/Src/stm32h7xx_hal_msp.c **** 
 417              		.loc 1 155 2 is_stmt 1 view .LVU124
 418 0018 154A     		ldr	r2, .L29+12
 419 001a D2F8E830 		ldr	r3, [r2, #232]
 420 001e 23F40023 		bic	r3, r3, #524288
 421 0022 C2F8E830 		str	r3, [r2, #232]
 161:../../../init/config/Src/stm32h7xx_hal_msp.c **** 	}
 422              		.loc 1 161 2 view .LVU125
 423 0026 0321     		movs	r1, #3
 424 0028 1248     		ldr	r0, .L29+16
 425              	.LVL16:
 161:../../../init/config/Src/stm32h7xx_hal_msp.c **** 	}
 426              		.loc 1 161 2 is_stmt 0 view .LVU126
 427 002a FFF7FEFF 		bl	HAL_GPIO_DeInit
 428              	.LVL17:
 429 002e F2E7     		b	.L21
 430              	.LVL18:
 431              	.L27:
 166:../../../init/config/Src/stm32h7xx_hal_msp.c **** 
 432              		.loc 1 166 2 is_stmt 1 view .LVU127
 433 0030 0F4A     		ldr	r2, .L29+12
 434 0032 D2F8E830 		ldr	r3, [r2, #232]
 435 0036 23F48013 		bic	r3, r3, #1048576
 436 003a C2F8E830 		str	r3, [r2, #232]
 171:../../../init/config/Src/stm32h7xx_hal_msp.c **** 	}
 437              		.loc 1 171 2 view .LVU128
 438 003e 4FF44051 		mov	r1, #12288
 439 0042 0D48     		ldr	r0, .L29+20
 440              	.LVL19:
 171:../../../init/config/Src/stm32h7xx_hal_msp.c **** 	}
 441              		.loc 1 171 2 is_stmt 0 view .LVU129
 442 0044 FFF7FEFF 		bl	HAL_GPIO_DeInit
 443              	.LVL20:
 444 0048 E5E7     		b	.L21
 445              	.LVL21:
 446              	.L28:
 176:../../../init/config/Src/stm32h7xx_hal_msp.c **** 
 447              		.loc 1 176 2 is_stmt 1 view .LVU130
 448 004a 094A     		ldr	r2, .L29+12
 449 004c D2F8F030 		ldr	r3, [r2, #240]
 450 0050 23F01003 		bic	r3, r3, #16
 451 0054 C2F8F030 		str	r3, [r2, #240]
 182:../../../init/config/Src/stm32h7xx_hal_msp.c **** 
 452              		.loc 1 182 2 view .LVU131
 453 0058 4FF4C061 		mov	r1, #1536
 454 005c 0548     		ldr	r0, .L29+16
 455              	.LVL22:
 182:../../../init/config/Src/stm32h7xx_hal_msp.c **** 
 456              		.loc 1 182 2 is_stmt 0 view .LVU132
 457 005e FFF7FEFF 		bl	HAL_GPIO_DeInit
 458              	.LVL23:
 459              		.loc 1 186 1 view .LVU133
 460 0062 D8E7     		b	.L21
 461              	.L30:
ARM GAS  /tmp/cclU5Am2.s 			page 14


 462              		.align	2
 463              	.L29:
 464 0064 004C0040 		.word	1073761280
 465 0068 00500040 		.word	1073762304
 466 006c 00100140 		.word	1073811456
 467 0070 00440258 		.word	1476543488
 468 0074 00000258 		.word	1476526080
 469 0078 00040258 		.word	1476527104
 470              		.cfi_endproc
 471              	.LFE146:
 473              		.text
 474              	.Letext0:
 475              		.file 2 "/usr/arm-none-eabi/include/machine/_default_types.h"
 476              		.file 3 "/usr/arm-none-eabi/include/sys/_stdint.h"
 477              		.file 4 "../../../lib/Drivers/CMSIS/Device/ST/STM32H7xx/Include/stm32h750xx.h"
 478              		.file 5 "../../../lib/Drivers/STM32H7xx_HAL_Driver/Inc/stm32h7xx_hal_def.h"
 479              		.file 6 "../../../lib/Drivers/STM32H7xx_HAL_Driver/Inc/stm32h7xx_hal_rcc_ex.h"
 480              		.file 7 "../../../lib/Drivers/STM32H7xx_HAL_Driver/Inc/stm32h7xx_hal_gpio.h"
 481              		.file 8 "../../../lib/Drivers/STM32H7xx_HAL_Driver/Inc/stm32h7xx_hal_dma.h"
 482              		.file 9 "../../../lib/Drivers/STM32H7xx_HAL_Driver/Inc/stm32h7xx_hal_uart.h"
 483              		.file 10 "../../../lib/util/sdr_error.h"
 484              		.file 11 "./main.h"
 485              		.file 12 "<built-in>"
ARM GAS  /tmp/cclU5Am2.s 			page 15

