ARM GAS  /tmp/ccD97u9U.s 			page 1


   1              		.cpu cortex-m7
   2              		.arch armv7e-m
   3              		.fpu fpv5-d16
   4              		.eabi_attribute 28, 1
   5              		.eabi_attribute 20, 1
   6              		.eabi_attribute 21, 1
   7              		.eabi_attribute 23, 3
   8              		.eabi_attribute 24, 1
   9              		.eabi_attribute 25, 1
  10              		.eabi_attribute 26, 1
  11              		.eabi_attribute 30, 1
  12              		.eabi_attribute 34, 1
  13              		.eabi_attribute 18, 4
  14              		.file	"init.c"
  15              		.text
  16              	.Ltext0:
  17              		.cfi_sections	.debug_frame
  18              		.file 1 "../../../init/init.c"
  19              		.section	.text.SystemClock_Config,"ax",%progbits
  20              		.align	1
  21              		.global	SystemClock_Config
  22              		.syntax unified
  23              		.thumb
  24              		.thumb_func
  26              	SystemClock_Config:
  27              	.LFB144:
   1:../../../init/init.c **** /*******************************************************************************
   2:../../../init/init.c **** *                                                                              *
   3:../../../init/init.c **** * FILE:                                                                        *
   4:../../../init/init.c **** * 		init.c                                                                 *
   5:../../../init/init.c **** *                                                                              *
   6:../../../init/init.c **** * DESCRIPTION:                                                                 *
   7:../../../init/init.c **** * 		Contains initialization routines for MCU core and peripherals          *
   8:../../../init/init.c **** *                                                                              *
   9:../../../init/init.c **** *******************************************************************************/
  10:../../../init/init.c **** 
  11:../../../init/init.c **** 
  12:../../../init/init.c **** /*------------------------------------------------------------------------------
  13:../../../init/init.c ****  Standard Includes                                                              
  14:../../../init/init.c **** ------------------------------------------------------------------------------*/
  15:../../../init/init.c **** 
  16:../../../init/init.c **** 
  17:../../../init/init.c **** /*------------------------------------------------------------------------------
  18:../../../init/init.c ****  Project Includes                                                               
  19:../../../init/init.c **** ------------------------------------------------------------------------------*/
  20:../../../init/init.c **** #include "sdr_pin_defines_A0005.h"
  21:../../../init/init.c **** #include "main.h"
  22:../../../init/init.c **** #include "init.h"
  23:../../../init/init.c **** #include "sdr_error.h"
  24:../../../init/init.c **** 
  25:../../../init/init.c **** 
  26:../../../init/init.c **** /*------------------------------------------------------------------------------
  27:../../../init/init.c ****  Global Variables 
  28:../../../init/init.c **** ------------------------------------------------------------------------------*/
  29:../../../init/init.c **** 
  30:../../../init/init.c **** 
  31:../../../init/init.c **** /*------------------------------------------------------------------------------
ARM GAS  /tmp/ccD97u9U.s 			page 2


  32:../../../init/init.c ****  Procedures 
  33:../../../init/init.c **** ------------------------------------------------------------------------------*/
  34:../../../init/init.c **** 
  35:../../../init/init.c **** 
  36:../../../init/init.c **** /*******************************************************************************
  37:../../../init/init.c **** *                                                                              *
  38:../../../init/init.c **** * PROCEDURE:                                                                   *
  39:../../../init/init.c **** *       SystemClock_Config                                                     *
  40:../../../init/init.c **** *                                                                              *
  41:../../../init/init.c **** * DESCRIPTION:                                                                 *
  42:../../../init/init.c **** *       Initializes the microcontroller clock. Enables peripheral clocks and   *
  43:../../../init/init.c **** *       sets prescalers                                                        *
  44:../../../init/init.c **** *                                                                              *
  45:../../../init/init.c **** *******************************************************************************/
  46:../../../init/init.c **** void SystemClock_Config
  47:../../../init/init.c **** 	(
  48:../../../init/init.c **** 	void
  49:../../../init/init.c **** 	)
  50:../../../init/init.c **** {
  28              		.loc 1 50 1 view -0
  29              		.cfi_startproc
  30              		@ args = 0, pretend = 0, frame = 112
  31              		@ frame_needed = 0, uses_anonymous_args = 0
  32 0000 00B5     		push	{lr}
  33              	.LCFI0:
  34              		.cfi_def_cfa_offset 4
  35              		.cfi_offset 14, -4
  36 0002 9DB0     		sub	sp, sp, #116
  37              	.LCFI1:
  38              		.cfi_def_cfa_offset 120
  51:../../../init/init.c **** /* Initialization Structs */
  52:../../../init/init.c **** RCC_OscInitTypeDef RCC_OscInitStruct = {0};
  39              		.loc 1 52 1 view .LVU1
  40              		.loc 1 52 20 is_stmt 0 view .LVU2
  41 0004 4C22     		movs	r2, #76
  42 0006 0021     		movs	r1, #0
  43 0008 09A8     		add	r0, sp, #36
  44 000a FFF7FEFF 		bl	memset
  45              	.LVL0:
  53:../../../init/init.c **** RCC_ClkInitTypeDef RCC_ClkInitStruct = {0};
  46              		.loc 1 53 1 is_stmt 1 view .LVU3
  47              		.loc 1 53 20 is_stmt 0 view .LVU4
  48 000e 2022     		movs	r2, #32
  49 0010 0021     		movs	r1, #0
  50 0012 01A8     		add	r0, sp, #4
  51 0014 FFF7FEFF 		bl	memset
  52              	.LVL1:
  54:../../../init/init.c **** 
  55:../../../init/init.c **** /* Supply configuration update enable */
  56:../../../init/init.c **** HAL_PWREx_ConfigSupply(PWR_LDO_SUPPLY);
  53              		.loc 1 56 1 is_stmt 1 view .LVU5
  54 0018 0220     		movs	r0, #2
  55 001a FFF7FEFF 		bl	HAL_PWREx_ConfigSupply
  56              	.LVL2:
  57:../../../init/init.c **** 
  58:../../../init/init.c **** /* Configure the main internal regulator output voltage */
  59:../../../init/init.c **** __HAL_PWR_VOLTAGESCALING_CONFIG(PWR_REGULATOR_VOLTAGE_SCALE0);
ARM GAS  /tmp/ccD97u9U.s 			page 3


  57              		.loc 1 59 1 view .LVU6
  58              	.LBB2:
  59              		.loc 1 59 1 view .LVU7
  60 001e 0023     		movs	r3, #0
  61 0020 0093     		str	r3, [sp]
  62              		.loc 1 59 1 view .LVU8
  63              		.loc 1 59 1 view .LVU9
  64 0022 274B     		ldr	r3, .L8
  65 0024 9A69     		ldr	r2, [r3, #24]
  66 0026 42F44042 		orr	r2, r2, #49152
  67 002a 9A61     		str	r2, [r3, #24]
  68              		.loc 1 59 1 view .LVU10
  69 002c 9B69     		ldr	r3, [r3, #24]
  70 002e 03F44043 		and	r3, r3, #49152
  71 0032 0093     		str	r3, [sp]
  72              		.loc 1 59 1 view .LVU11
  73 0034 234B     		ldr	r3, .L8+4
  74 0036 DA6A     		ldr	r2, [r3, #44]
  75 0038 42F00102 		orr	r2, r2, #1
  76 003c DA62     		str	r2, [r3, #44]
  77              		.loc 1 59 1 view .LVU12
  78 003e DB6A     		ldr	r3, [r3, #44]
  79 0040 03F00103 		and	r3, r3, #1
  80 0044 0093     		str	r3, [sp]
  81              		.loc 1 59 1 view .LVU13
  82 0046 009B     		ldr	r3, [sp]
  83              	.LBE2:
  84              		.loc 1 59 1 view .LVU14
  60:../../../init/init.c **** 
  61:../../../init/init.c **** while(!__HAL_PWR_GET_FLAG(PWR_FLAG_VOSRDY)) 
  85              		.loc 1 61 1 view .LVU15
  86              	.L2:
  62:../../../init/init.c **** 	{
  63:../../../init/init.c **** 	/* Wait for PWR_FLAG_VOSRDY flag */
  64:../../../init/init.c **** 	}
  87              		.loc 1 64 2 discriminator 1 view .LVU16
  61:../../../init/init.c **** 	{
  88              		.loc 1 61 7 discriminator 1 view .LVU17
  61:../../../init/init.c **** 	{
  89              		.loc 1 61 8 is_stmt 0 discriminator 1 view .LVU18
  90 0048 1D4B     		ldr	r3, .L8
  91 004a 9B69     		ldr	r3, [r3, #24]
  61:../../../init/init.c **** 	{
  92              		.loc 1 61 7 discriminator 1 view .LVU19
  93 004c 13F4005F 		tst	r3, #8192
  94 0050 FAD0     		beq	.L2
  65:../../../init/init.c **** 
  66:../../../init/init.c **** /* Initializes the RCC Oscillators according to the specified parameters
  67:../../../init/init.c ****    in the RCC_OscInitTypeDef structure. */
  68:../../../init/init.c **** RCC_OscInitStruct.OscillatorType = RCC_OSCILLATORTYPE_HSE;
  95              		.loc 1 68 1 is_stmt 1 view .LVU20
  96              		.loc 1 68 34 is_stmt 0 view .LVU21
  97 0052 0123     		movs	r3, #1
  98 0054 0993     		str	r3, [sp, #36]
  69:../../../init/init.c **** RCC_OscInitStruct.HSEState       = RCC_HSE_ON;
  99              		.loc 1 69 1 is_stmt 1 view .LVU22
 100              		.loc 1 69 34 is_stmt 0 view .LVU23
ARM GAS  /tmp/ccD97u9U.s 			page 4


 101 0056 4FF48033 		mov	r3, #65536
 102 005a 0A93     		str	r3, [sp, #40]
  70:../../../init/init.c **** RCC_OscInitStruct.PLL.PLLState   = RCC_PLL_ON;
 103              		.loc 1 70 1 is_stmt 1 view .LVU24
 104              		.loc 1 70 34 is_stmt 0 view .LVU25
 105 005c 0223     		movs	r3, #2
 106 005e 1293     		str	r3, [sp, #72]
  71:../../../init/init.c **** RCC_OscInitStruct.PLL.PLLSource  = RCC_PLLSOURCE_HSE;
 107              		.loc 1 71 1 is_stmt 1 view .LVU26
 108              		.loc 1 71 34 is_stmt 0 view .LVU27
 109 0060 1393     		str	r3, [sp, #76]
  72:../../../init/init.c **** RCC_OscInitStruct.PLL.PLLM       = 2;
 110              		.loc 1 72 1 is_stmt 1 view .LVU28
 111              		.loc 1 72 34 is_stmt 0 view .LVU29
 112 0062 1493     		str	r3, [sp, #80]
  73:../../../init/init.c **** RCC_OscInitStruct.PLL.PLLN       = 80;
 113              		.loc 1 73 1 is_stmt 1 view .LVU30
 114              		.loc 1 73 34 is_stmt 0 view .LVU31
 115 0064 5022     		movs	r2, #80
 116 0066 1592     		str	r2, [sp, #84]
  74:../../../init/init.c **** RCC_OscInitStruct.PLL.PLLP       = 2;
 117              		.loc 1 74 1 is_stmt 1 view .LVU32
 118              		.loc 1 74 34 is_stmt 0 view .LVU33
 119 0068 1693     		str	r3, [sp, #88]
  75:../../../init/init.c **** RCC_OscInitStruct.PLL.PLLQ       = 2;
 120              		.loc 1 75 1 is_stmt 1 view .LVU34
 121              		.loc 1 75 34 is_stmt 0 view .LVU35
 122 006a 1793     		str	r3, [sp, #92]
  76:../../../init/init.c **** RCC_OscInitStruct.PLL.PLLR       = 2;
 123              		.loc 1 76 1 is_stmt 1 view .LVU36
 124              		.loc 1 76 34 is_stmt 0 view .LVU37
 125 006c 1893     		str	r3, [sp, #96]
  77:../../../init/init.c **** RCC_OscInitStruct.PLL.PLLRGE     = RCC_PLL1VCIRANGE_3;
 126              		.loc 1 77 1 is_stmt 1 view .LVU38
 127              		.loc 1 77 34 is_stmt 0 view .LVU39
 128 006e 0C23     		movs	r3, #12
 129 0070 1993     		str	r3, [sp, #100]
  78:../../../init/init.c **** RCC_OscInitStruct.PLL.PLLVCOSEL  = RCC_PLL1VCOWIDE;
 130              		.loc 1 78 1 is_stmt 1 view .LVU40
 131              		.loc 1 78 34 is_stmt 0 view .LVU41
 132 0072 0023     		movs	r3, #0
 133 0074 1A93     		str	r3, [sp, #104]
  79:../../../init/init.c **** RCC_OscInitStruct.PLL.PLLFRACN   = 0;
 134              		.loc 1 79 1 is_stmt 1 view .LVU42
 135              		.loc 1 79 34 is_stmt 0 view .LVU43
 136 0076 1B93     		str	r3, [sp, #108]
  80:../../../init/init.c **** if ( HAL_RCC_OscConfig( &RCC_OscInitStruct ) != HAL_OK )
 137              		.loc 1 80 1 is_stmt 1 view .LVU44
 138              		.loc 1 80 6 is_stmt 0 view .LVU45
 139 0078 09A8     		add	r0, sp, #36
 140 007a FFF7FEFF 		bl	HAL_RCC_OscConfig
 141              	.LVL3:
 142              		.loc 1 80 4 view .LVU46
 143 007e B8B9     		cbnz	r0, .L6
 144              	.L3:
  81:../../../init/init.c **** 	{
  82:../../../init/init.c **** 	Error_Handler( ERROR_SYSCLOCK_CONFIG_ERROR );
ARM GAS  /tmp/ccD97u9U.s 			page 5


  83:../../../init/init.c **** 	}
  84:../../../init/init.c **** 
  85:../../../init/init.c **** /* Initializes the CPU, AHB and APB buses clocks */
  86:../../../init/init.c **** RCC_ClkInitStruct.ClockType      = RCC_CLOCKTYPE_HCLK    |
 145              		.loc 1 86 1 is_stmt 1 view .LVU47
 146              		.loc 1 86 34 is_stmt 0 view .LVU48
 147 0080 3F23     		movs	r3, #63
 148 0082 0193     		str	r3, [sp, #4]
  87:../../../init/init.c **** 	                               RCC_CLOCKTYPE_SYSCLK  |
  88:../../../init/init.c **** 						           RCC_CLOCKTYPE_PCLK1   |
  89:../../../init/init.c ****                                    RCC_CLOCKTYPE_PCLK2   |
  90:../../../init/init.c **** 						           RCC_CLOCKTYPE_D3PCLK1 |
  91:../../../init/init.c **** 		                           RCC_CLOCKTYPE_D1PCLK1;
  92:../../../init/init.c **** RCC_ClkInitStruct.SYSCLKSource   = RCC_SYSCLKSOURCE_PLLCLK;
 149              		.loc 1 92 1 is_stmt 1 view .LVU49
 150              		.loc 1 92 34 is_stmt 0 view .LVU50
 151 0084 0323     		movs	r3, #3
 152 0086 0293     		str	r3, [sp, #8]
  93:../../../init/init.c **** RCC_ClkInitStruct.SYSCLKDivider  = RCC_SYSCLK_DIV1;
 153              		.loc 1 93 1 is_stmt 1 view .LVU51
 154              		.loc 1 93 34 is_stmt 0 view .LVU52
 155 0088 0023     		movs	r3, #0
 156 008a 0393     		str	r3, [sp, #12]
  94:../../../init/init.c **** RCC_ClkInitStruct.AHBCLKDivider  = RCC_HCLK_DIV2;
 157              		.loc 1 94 1 is_stmt 1 view .LVU53
 158              		.loc 1 94 34 is_stmt 0 view .LVU54
 159 008c 0823     		movs	r3, #8
 160 008e 0493     		str	r3, [sp, #16]
  95:../../../init/init.c **** RCC_ClkInitStruct.APB3CLKDivider = RCC_APB3_DIV2;
 161              		.loc 1 95 1 is_stmt 1 view .LVU55
 162              		.loc 1 95 34 is_stmt 0 view .LVU56
 163 0090 4023     		movs	r3, #64
 164 0092 0593     		str	r3, [sp, #20]
  96:../../../init/init.c **** RCC_ClkInitStruct.APB1CLKDivider = RCC_APB1_DIV2;
 165              		.loc 1 96 1 is_stmt 1 view .LVU57
 166              		.loc 1 96 34 is_stmt 0 view .LVU58
 167 0094 0693     		str	r3, [sp, #24]
  97:../../../init/init.c **** RCC_ClkInitStruct.APB2CLKDivider = RCC_APB2_DIV2;
 168              		.loc 1 97 1 is_stmt 1 view .LVU59
 169              		.loc 1 97 34 is_stmt 0 view .LVU60
 170 0096 4FF48062 		mov	r2, #1024
 171 009a 0792     		str	r2, [sp, #28]
  98:../../../init/init.c **** RCC_ClkInitStruct.APB4CLKDivider = RCC_APB4_DIV2;
 172              		.loc 1 98 1 is_stmt 1 view .LVU61
 173              		.loc 1 98 34 is_stmt 0 view .LVU62
 174 009c 0893     		str	r3, [sp, #32]
  99:../../../init/init.c **** 
 100:../../../init/init.c **** /* Set the configuration */
 101:../../../init/init.c **** if ( HAL_RCC_ClockConfig( &RCC_ClkInitStruct, FLASH_LATENCY_4 ) != HAL_OK )
 175              		.loc 1 101 1 is_stmt 1 view .LVU63
 176              		.loc 1 101 6 is_stmt 0 view .LVU64
 177 009e 0421     		movs	r1, #4
 178 00a0 0DEB0100 		add	r0, sp, r1
 179 00a4 FFF7FEFF 		bl	HAL_RCC_ClockConfig
 180              	.LVL4:
 181              		.loc 1 101 4 view .LVU65
 182 00a8 30B9     		cbnz	r0, .L7
ARM GAS  /tmp/ccD97u9U.s 			page 6


 183              	.L1:
 102:../../../init/init.c **** 	{
 103:../../../init/init.c **** 	Error_Handler( ERROR_SYSCLOCK_CONFIG_ERROR );
 104:../../../init/init.c **** 	}
 105:../../../init/init.c **** } /* SystemClock_Config */
 184              		.loc 1 105 1 view .LVU66
 185 00aa 1DB0     		add	sp, sp, #116
 186              	.LCFI2:
 187              		.cfi_remember_state
 188              		.cfi_def_cfa_offset 4
 189              		@ sp needed
 190 00ac 5DF804FB 		ldr	pc, [sp], #4
 191              	.L6:
 192              	.LCFI3:
 193              		.cfi_restore_state
  82:../../../init/init.c **** 	}
 194              		.loc 1 82 2 is_stmt 1 view .LVU67
 195 00b0 0B20     		movs	r0, #11
 196 00b2 FFF7FEFF 		bl	Error_Handler
 197              	.LVL5:
 198 00b6 E3E7     		b	.L3
 199              	.L7:
 103:../../../init/init.c **** 	}
 200              		.loc 1 103 2 view .LVU68
 201 00b8 0B20     		movs	r0, #11
 202 00ba FFF7FEFF 		bl	Error_Handler
 203              	.LVL6:
 204              		.loc 1 105 1 is_stmt 0 view .LVU69
 205 00be F4E7     		b	.L1
 206              	.L9:
 207              		.align	2
 208              	.L8:
 209 00c0 00480258 		.word	1476544512
 210 00c4 00040058 		.word	1476396032
 211              		.cfi_endproc
 212              	.LFE144:
 214              		.section	.text.XBee_UART_Init,"ax",%progbits
 215              		.align	1
 216              		.global	XBee_UART_Init
 217              		.syntax unified
 218              		.thumb
 219              		.thumb_func
 221              	XBee_UART_Init:
 222              	.LFB145:
 106:../../../init/init.c **** 
 107:../../../init/init.c **** 
 108:../../../init/init.c **** /*******************************************************************************
 109:../../../init/init.c **** *                                                                              *
 110:../../../init/init.c **** * PROCEDURE:                                                                   *
 111:../../../init/init.c **** *       XBee_UART_Init                                                         *
 112:../../../init/init.c **** *                                                                              *
 113:../../../init/init.c **** * DESCRIPTION:                                                                 *
 114:../../../init/init.c **** *		Initializes the UART peripheral attached to the XBee module            *
 115:../../../init/init.c **** *                                                                              *
 116:../../../init/init.c **** *******************************************************************************/
 117:../../../init/init.c **** void XBee_UART_Init
 118:../../../init/init.c **** 	(
ARM GAS  /tmp/ccD97u9U.s 			page 7


 119:../../../init/init.c **** 	void
 120:../../../init/init.c **** 	)
 121:../../../init/init.c **** {
 223              		.loc 1 121 1 is_stmt 1 view -0
 224              		.cfi_startproc
 225              		@ args = 0, pretend = 0, frame = 0
 226              		@ frame_needed = 0, uses_anonymous_args = 0
 227 0000 08B5     		push	{r3, lr}
 228              	.LCFI4:
 229              		.cfi_def_cfa_offset 8
 230              		.cfi_offset 3, -8
 231              		.cfi_offset 14, -4
 122:../../../init/init.c **** /* Fill configuration struct with UART settings */
 123:../../../init/init.c **** huart4.Instance                    = UART4;
 232              		.loc 1 123 1 view .LVU71
 233              		.loc 1 123 36 is_stmt 0 view .LVU72
 234 0002 1948     		ldr	r0, .L20
 235 0004 194B     		ldr	r3, .L20+4
 236 0006 0360     		str	r3, [r0]
 124:../../../init/init.c **** huart4.Init.BaudRate               = 9600;
 237              		.loc 1 124 1 is_stmt 1 view .LVU73
 238              		.loc 1 124 36 is_stmt 0 view .LVU74
 239 0008 4FF41653 		mov	r3, #9600
 240 000c 4360     		str	r3, [r0, #4]
 125:../../../init/init.c **** huart4.Init.WordLength             = UART_WORDLENGTH_8B;
 241              		.loc 1 125 1 is_stmt 1 view .LVU75
 242              		.loc 1 125 36 is_stmt 0 view .LVU76
 243 000e 0023     		movs	r3, #0
 244 0010 8360     		str	r3, [r0, #8]
 126:../../../init/init.c **** huart4.Init.StopBits               = UART_STOPBITS_1;
 245              		.loc 1 126 1 is_stmt 1 view .LVU77
 246              		.loc 1 126 36 is_stmt 0 view .LVU78
 247 0012 C360     		str	r3, [r0, #12]
 127:../../../init/init.c **** huart4.Init.Parity                 = UART_PARITY_NONE;
 248              		.loc 1 127 1 is_stmt 1 view .LVU79
 249              		.loc 1 127 36 is_stmt 0 view .LVU80
 250 0014 0361     		str	r3, [r0, #16]
 128:../../../init/init.c **** huart4.Init.Mode                   = UART_MODE_TX_RX;
 251              		.loc 1 128 1 is_stmt 1 view .LVU81
 252              		.loc 1 128 36 is_stmt 0 view .LVU82
 253 0016 0C22     		movs	r2, #12
 254 0018 4261     		str	r2, [r0, #20]
 129:../../../init/init.c **** huart4.Init.HwFlowCtl              = UART_HWCONTROL_NONE;
 255              		.loc 1 129 1 is_stmt 1 view .LVU83
 256              		.loc 1 129 36 is_stmt 0 view .LVU84
 257 001a 8361     		str	r3, [r0, #24]
 130:../../../init/init.c **** huart4.Init.OverSampling           = UART_OVERSAMPLING_16;
 258              		.loc 1 130 1 is_stmt 1 view .LVU85
 259              		.loc 1 130 36 is_stmt 0 view .LVU86
 260 001c C361     		str	r3, [r0, #28]
 131:../../../init/init.c **** huart4.Init.OneBitSampling         = UART_ONE_BIT_SAMPLE_DISABLE;
 261              		.loc 1 131 1 is_stmt 1 view .LVU87
 262              		.loc 1 131 36 is_stmt 0 view .LVU88
 263 001e 0362     		str	r3, [r0, #32]
 132:../../../init/init.c **** huart4.Init.ClockPrescaler         = UART_PRESCALER_DIV1;
 264              		.loc 1 132 1 is_stmt 1 view .LVU89
 265              		.loc 1 132 36 is_stmt 0 view .LVU90
ARM GAS  /tmp/ccD97u9U.s 			page 8


 266 0020 4362     		str	r3, [r0, #36]
 133:../../../init/init.c **** huart4.AdvancedInit.AdvFeatureInit = UART_ADVFEATURE_NO_INIT;
 267              		.loc 1 133 1 is_stmt 1 view .LVU91
 268              		.loc 1 133 36 is_stmt 0 view .LVU92
 269 0022 8362     		str	r3, [r0, #40]
 134:../../../init/init.c **** 
 135:../../../init/init.c **** /* Apply configuration */
 136:../../../init/init.c **** if ( HAL_UART_Init( &huart4 ) != HAL_OK )
 270              		.loc 1 136 1 is_stmt 1 view .LVU93
 271              		.loc 1 136 6 is_stmt 0 view .LVU94
 272 0024 FFF7FEFF 		bl	HAL_UART_Init
 273              	.LVL7:
 274              		.loc 1 136 4 view .LVU95
 275 0028 70B9     		cbnz	r0, .L16
 276              	.L11:
 137:../../../init/init.c **** 	{
 138:../../../init/init.c **** 	Error_Handler( ERROR_XBEE_UART_CONFIG_ERROR );
 139:../../../init/init.c **** 	}
 140:../../../init/init.c **** if ( HAL_UARTEx_SetTxFifoThreshold( &huart4, UART_TXFIFO_THRESHOLD_1_8 ) != HAL_OK )
 277              		.loc 1 140 1 is_stmt 1 view .LVU96
 278              		.loc 1 140 6 is_stmt 0 view .LVU97
 279 002a 0021     		movs	r1, #0
 280 002c 0E48     		ldr	r0, .L20
 281 002e FFF7FEFF 		bl	HAL_UARTEx_SetTxFifoThreshold
 282              	.LVL8:
 283              		.loc 1 140 4 view .LVU98
 284 0032 68B9     		cbnz	r0, .L17
 285              	.L12:
 141:../../../init/init.c **** 	{
 142:../../../init/init.c **** 	Error_Handler( ERROR_XBEE_UART_CONFIG_ERROR );
 143:../../../init/init.c **** 	}
 144:../../../init/init.c **** if ( HAL_UARTEx_SetRxFifoThreshold( &huart4, UART_RXFIFO_THRESHOLD_1_8 ) != HAL_OK )
 286              		.loc 1 144 1 is_stmt 1 view .LVU99
 287              		.loc 1 144 6 is_stmt 0 view .LVU100
 288 0034 0021     		movs	r1, #0
 289 0036 0C48     		ldr	r0, .L20
 290 0038 FFF7FEFF 		bl	HAL_UARTEx_SetRxFifoThreshold
 291              	.LVL9:
 292              		.loc 1 144 4 view .LVU101
 293 003c 60B9     		cbnz	r0, .L18
 294              	.L13:
 145:../../../init/init.c **** 	{
 146:../../../init/init.c **** 	Error_Handler( ERROR_XBEE_UART_CONFIG_ERROR );
 147:../../../init/init.c **** 	}
 148:../../../init/init.c **** if ( HAL_UARTEx_DisableFifoMode( &huart4 ) != HAL_OK )
 295              		.loc 1 148 1 is_stmt 1 view .LVU102
 296              		.loc 1 148 6 is_stmt 0 view .LVU103
 297 003e 0A48     		ldr	r0, .L20
 298 0040 FFF7FEFF 		bl	HAL_UARTEx_DisableFifoMode
 299              	.LVL10:
 300              		.loc 1 148 4 view .LVU104
 301 0044 60B9     		cbnz	r0, .L19
 302              	.L10:
 149:../../../init/init.c **** 	{
 150:../../../init/init.c **** 	Error_Handler( ERROR_XBEE_UART_CONFIG_ERROR );
 151:../../../init/init.c **** 	}
 152:../../../init/init.c **** 
ARM GAS  /tmp/ccD97u9U.s 			page 9


 153:../../../init/init.c **** } /* XBee_UART_Init */
 303              		.loc 1 153 1 view .LVU105
 304 0046 08BD     		pop	{r3, pc}
 305              	.L16:
 138:../../../init/init.c **** 	}
 306              		.loc 1 138 2 is_stmt 1 view .LVU106
 307 0048 1820     		movs	r0, #24
 308 004a FFF7FEFF 		bl	Error_Handler
 309              	.LVL11:
 310 004e ECE7     		b	.L11
 311              	.L17:
 142:../../../init/init.c **** 	}
 312              		.loc 1 142 2 view .LVU107
 313 0050 1820     		movs	r0, #24
 314 0052 FFF7FEFF 		bl	Error_Handler
 315              	.LVL12:
 316 0056 EDE7     		b	.L12
 317              	.L18:
 146:../../../init/init.c **** 	}
 318              		.loc 1 146 2 view .LVU108
 319 0058 1820     		movs	r0, #24
 320 005a FFF7FEFF 		bl	Error_Handler
 321              	.LVL13:
 322 005e EEE7     		b	.L13
 323              	.L19:
 150:../../../init/init.c **** 	}
 324              		.loc 1 150 2 view .LVU109
 325 0060 1820     		movs	r0, #24
 326 0062 FFF7FEFF 		bl	Error_Handler
 327              	.LVL14:
 328              		.loc 1 153 1 is_stmt 0 view .LVU110
 329 0066 EEE7     		b	.L10
 330              	.L21:
 331              		.align	2
 332              	.L20:
 333 0068 00000000 		.word	huart4
 334 006c 004C0040 		.word	1073761280
 335              		.cfi_endproc
 336              	.LFE145:
 338              		.section	.text.USB_UART_Init,"ax",%progbits
 339              		.align	1
 340              		.global	USB_UART_Init
 341              		.syntax unified
 342              		.thumb
 343              		.thumb_func
 345              	USB_UART_Init:
 346              	.LFB146:
 154:../../../init/init.c **** 
 155:../../../init/init.c **** 
 156:../../../init/init.c **** /*******************************************************************************
 157:../../../init/init.c **** *                                                                              *
 158:../../../init/init.c **** * PROCEDURE:                                                                   *
 159:../../../init/init.c **** *       USB_UART_Init                                                          *
 160:../../../init/init.c **** *                                                                              *
 161:../../../init/init.c **** * DESCRIPTION:                                                                 *
 162:../../../init/init.c **** *		Initializes the UART peripheral attached to the USB port               *
 163:../../../init/init.c **** *                                                                              *
ARM GAS  /tmp/ccD97u9U.s 			page 10


 164:../../../init/init.c **** *******************************************************************************/
 165:../../../init/init.c **** void USB_UART_Init 
 166:../../../init/init.c **** 	(
 167:../../../init/init.c **** 	void
 168:../../../init/init.c **** 	)
 169:../../../init/init.c **** {
 347              		.loc 1 169 1 is_stmt 1 view -0
 348              		.cfi_startproc
 349              		@ args = 0, pretend = 0, frame = 0
 350              		@ frame_needed = 0, uses_anonymous_args = 0
 351 0000 08B5     		push	{r3, lr}
 352              	.LCFI5:
 353              		.cfi_def_cfa_offset 8
 354              		.cfi_offset 3, -8
 355              		.cfi_offset 14, -4
 170:../../../init/init.c **** 
 171:../../../init/init.c **** /* Fill configuration struct with UART settings */
 172:../../../init/init.c **** huart1.Instance                    = USART1;
 356              		.loc 1 172 1 view .LVU112
 357              		.loc 1 172 36 is_stmt 0 view .LVU113
 358 0002 1948     		ldr	r0, .L32
 359 0004 194B     		ldr	r3, .L32+4
 360 0006 0360     		str	r3, [r0]
 173:../../../init/init.c **** huart1.Init.BaudRate               = 921600;
 361              		.loc 1 173 1 is_stmt 1 view .LVU114
 362              		.loc 1 173 36 is_stmt 0 view .LVU115
 363 0008 4FF46123 		mov	r3, #921600
 364 000c 4360     		str	r3, [r0, #4]
 174:../../../init/init.c **** huart1.Init.WordLength             = UART_WORDLENGTH_8B;
 365              		.loc 1 174 1 is_stmt 1 view .LVU116
 366              		.loc 1 174 36 is_stmt 0 view .LVU117
 367 000e 0023     		movs	r3, #0
 368 0010 8360     		str	r3, [r0, #8]
 175:../../../init/init.c **** huart1.Init.StopBits               = UART_STOPBITS_1;
 369              		.loc 1 175 1 is_stmt 1 view .LVU118
 370              		.loc 1 175 36 is_stmt 0 view .LVU119
 371 0012 C360     		str	r3, [r0, #12]
 176:../../../init/init.c **** huart1.Init.Parity                 = UART_PARITY_NONE;
 372              		.loc 1 176 1 is_stmt 1 view .LVU120
 373              		.loc 1 176 36 is_stmt 0 view .LVU121
 374 0014 0361     		str	r3, [r0, #16]
 177:../../../init/init.c **** huart1.Init.Mode                   = UART_MODE_TX_RX;
 375              		.loc 1 177 1 is_stmt 1 view .LVU122
 376              		.loc 1 177 36 is_stmt 0 view .LVU123
 377 0016 0C22     		movs	r2, #12
 378 0018 4261     		str	r2, [r0, #20]
 178:../../../init/init.c **** huart1.Init.HwFlowCtl              = UART_HWCONTROL_NONE;
 379              		.loc 1 178 1 is_stmt 1 view .LVU124
 380              		.loc 1 178 36 is_stmt 0 view .LVU125
 381 001a 8361     		str	r3, [r0, #24]
 179:../../../init/init.c **** huart1.Init.OverSampling           = UART_OVERSAMPLING_16;
 382              		.loc 1 179 1 is_stmt 1 view .LVU126
 383              		.loc 1 179 36 is_stmt 0 view .LVU127
 384 001c C361     		str	r3, [r0, #28]
 180:../../../init/init.c **** huart1.Init.OneBitSampling         = UART_ONE_BIT_SAMPLE_DISABLE;
 385              		.loc 1 180 1 is_stmt 1 view .LVU128
 386              		.loc 1 180 36 is_stmt 0 view .LVU129
ARM GAS  /tmp/ccD97u9U.s 			page 11


 387 001e 0362     		str	r3, [r0, #32]
 181:../../../init/init.c **** huart1.Init.ClockPrescaler         = UART_PRESCALER_DIV1;
 388              		.loc 1 181 1 is_stmt 1 view .LVU130
 389              		.loc 1 181 36 is_stmt 0 view .LVU131
 390 0020 4362     		str	r3, [r0, #36]
 182:../../../init/init.c **** huart1.AdvancedInit.AdvFeatureInit = UART_ADVFEATURE_NO_INIT;
 391              		.loc 1 182 1 is_stmt 1 view .LVU132
 392              		.loc 1 182 36 is_stmt 0 view .LVU133
 393 0022 8362     		str	r3, [r0, #40]
 183:../../../init/init.c **** 
 184:../../../init/init.c **** /* Apply configuration */
 185:../../../init/init.c **** if ( HAL_UART_Init( &huart1 ) != HAL_OK )
 394              		.loc 1 185 1 is_stmt 1 view .LVU134
 395              		.loc 1 185 6 is_stmt 0 view .LVU135
 396 0024 FFF7FEFF 		bl	HAL_UART_Init
 397              	.LVL15:
 398              		.loc 1 185 4 view .LVU136
 399 0028 70B9     		cbnz	r0, .L28
 400              	.L23:
 186:../../../init/init.c **** 	{
 187:../../../init/init.c **** 	Error_Handler( ERROR_USB_UART_INIT_ERROR );
 188:../../../init/init.c **** 	}
 189:../../../init/init.c **** if ( HAL_UARTEx_SetTxFifoThreshold( &huart1, UART_TXFIFO_THRESHOLD_1_8 ) != HAL_OK )
 401              		.loc 1 189 1 is_stmt 1 view .LVU137
 402              		.loc 1 189 6 is_stmt 0 view .LVU138
 403 002a 0021     		movs	r1, #0
 404 002c 0E48     		ldr	r0, .L32
 405 002e FFF7FEFF 		bl	HAL_UARTEx_SetTxFifoThreshold
 406              	.LVL16:
 407              		.loc 1 189 4 view .LVU139
 408 0032 68B9     		cbnz	r0, .L29
 409              	.L24:
 190:../../../init/init.c **** 	{
 191:../../../init/init.c **** 	Error_Handler( ERROR_USB_UART_INIT_ERROR );
 192:../../../init/init.c **** 	}
 193:../../../init/init.c **** if ( HAL_UARTEx_SetRxFifoThreshold( &huart1, UART_RXFIFO_THRESHOLD_1_8 ) != HAL_OK )
 410              		.loc 1 193 1 is_stmt 1 view .LVU140
 411              		.loc 1 193 6 is_stmt 0 view .LVU141
 412 0034 0021     		movs	r1, #0
 413 0036 0C48     		ldr	r0, .L32
 414 0038 FFF7FEFF 		bl	HAL_UARTEx_SetRxFifoThreshold
 415              	.LVL17:
 416              		.loc 1 193 4 view .LVU142
 417 003c 60B9     		cbnz	r0, .L30
 418              	.L25:
 194:../../../init/init.c **** 	{
 195:../../../init/init.c **** 	Error_Handler( ERROR_USB_UART_INIT_ERROR );
 196:../../../init/init.c **** 	}
 197:../../../init/init.c **** if ( HAL_UARTEx_DisableFifoMode( &huart1 ) != HAL_OK )
 419              		.loc 1 197 1 is_stmt 1 view .LVU143
 420              		.loc 1 197 6 is_stmt 0 view .LVU144
 421 003e 0A48     		ldr	r0, .L32
 422 0040 FFF7FEFF 		bl	HAL_UARTEx_DisableFifoMode
 423              	.LVL18:
 424              		.loc 1 197 4 view .LVU145
 425 0044 60B9     		cbnz	r0, .L31
 426              	.L22:
ARM GAS  /tmp/ccD97u9U.s 			page 12


 198:../../../init/init.c **** 	{
 199:../../../init/init.c **** 	Error_Handler( ERROR_USB_UART_INIT_ERROR );
 200:../../../init/init.c **** 	}
 201:../../../init/init.c **** 
 202:../../../init/init.c **** } /*  USB_UART_Init() */
 427              		.loc 1 202 1 view .LVU146
 428 0046 08BD     		pop	{r3, pc}
 429              	.L28:
 187:../../../init/init.c **** 	}
 430              		.loc 1 187 2 is_stmt 1 view .LVU147
 431 0048 1020     		movs	r0, #16
 432 004a FFF7FEFF 		bl	Error_Handler
 433              	.LVL19:
 434 004e ECE7     		b	.L23
 435              	.L29:
 191:../../../init/init.c **** 	}
 436              		.loc 1 191 2 view .LVU148
 437 0050 1020     		movs	r0, #16
 438 0052 FFF7FEFF 		bl	Error_Handler
 439              	.LVL20:
 440 0056 EDE7     		b	.L24
 441              	.L30:
 195:../../../init/init.c **** 	}
 442              		.loc 1 195 2 view .LVU149
 443 0058 1020     		movs	r0, #16
 444 005a FFF7FEFF 		bl	Error_Handler
 445              	.LVL21:
 446 005e EEE7     		b	.L25
 447              	.L31:
 199:../../../init/init.c **** 	}
 448              		.loc 1 199 2 view .LVU150
 449 0060 1020     		movs	r0, #16
 450 0062 FFF7FEFF 		bl	Error_Handler
 451              	.LVL22:
 452              		.loc 1 202 1 is_stmt 0 view .LVU151
 453 0066 EEE7     		b	.L22
 454              	.L33:
 455              		.align	2
 456              	.L32:
 457 0068 00000000 		.word	huart1
 458 006c 00100140 		.word	1073811456
 459              		.cfi_endproc
 460              	.LFE146:
 462              		.section	.text.GPIO_Init,"ax",%progbits
 463              		.align	1
 464              		.global	GPIO_Init
 465              		.syntax unified
 466              		.thumb
 467              		.thumb_func
 469              	GPIO_Init:
 470              	.LFB147:
 203:../../../init/init.c **** 
 204:../../../init/init.c **** 
 205:../../../init/init.c **** /*******************************************************************************
 206:../../../init/init.c **** *                                                                              *
 207:../../../init/init.c **** * PROCEDURE:                                                                   *
 208:../../../init/init.c **** *       GPIO_Init                                                              *
ARM GAS  /tmp/ccD97u9U.s 			page 13


 209:../../../init/init.c **** *                                                                              *
 210:../../../init/init.c **** * DESCRIPTION:                                                                 *
 211:../../../init/init.c **** *       Initializes all GPIO pins and sets alternate functions                 *
 212:../../../init/init.c **** *                                                                              *
 213:../../../init/init.c **** *******************************************************************************/
 214:../../../init/init.c **** void GPIO_Init
 215:../../../init/init.c **** 	(
 216:../../../init/init.c **** 	void
 217:../../../init/init.c **** 	)
 218:../../../init/init.c **** {
 471              		.loc 1 218 1 is_stmt 1 view -0
 472              		.cfi_startproc
 473              		@ args = 0, pretend = 0, frame = 32
 474              		@ frame_needed = 0, uses_anonymous_args = 0
 475 0000 30B5     		push	{r4, r5, lr}
 476              	.LCFI6:
 477              		.cfi_def_cfa_offset 12
 478              		.cfi_offset 4, -12
 479              		.cfi_offset 5, -8
 480              		.cfi_offset 14, -4
 481 0002 89B0     		sub	sp, sp, #36
 482              	.LCFI7:
 483              		.cfi_def_cfa_offset 48
 219:../../../init/init.c **** /* GPIO Initialization Struct */
 220:../../../init/init.c **** GPIO_InitTypeDef GPIO_InitStruct = {0};
 484              		.loc 1 220 1 view .LVU153
 485              		.loc 1 220 18 is_stmt 0 view .LVU154
 486 0004 0024     		movs	r4, #0
 487 0006 0394     		str	r4, [sp, #12]
 488 0008 0494     		str	r4, [sp, #16]
 489 000a 0594     		str	r4, [sp, #20]
 490 000c 0694     		str	r4, [sp, #24]
 491 000e 0794     		str	r4, [sp, #28]
 221:../../../init/init.c **** 
 222:../../../init/init.c **** /* GPIO Ports Clock Enable */
 223:../../../init/init.c **** __HAL_RCC_GPIOH_CLK_ENABLE();
 492              		.loc 1 223 1 is_stmt 1 view .LVU155
 493              	.LBB3:
 494              		.loc 1 223 1 view .LVU156
 495              		.loc 1 223 1 view .LVU157
 496 0010 1C4B     		ldr	r3, .L36
 497 0012 D3F8E020 		ldr	r2, [r3, #224]
 498 0016 42F08002 		orr	r2, r2, #128
 499 001a C3F8E020 		str	r2, [r3, #224]
 500              		.loc 1 223 1 view .LVU158
 501 001e D3F8E020 		ldr	r2, [r3, #224]
 502 0022 02F08002 		and	r2, r2, #128
 503 0026 0092     		str	r2, [sp]
 504              		.loc 1 223 1 view .LVU159
 505 0028 009A     		ldr	r2, [sp]
 506              	.LBE3:
 507              		.loc 1 223 1 view .LVU160
 224:../../../init/init.c **** __HAL_RCC_GPIOA_CLK_ENABLE();
 508              		.loc 1 224 1 view .LVU161
 509              	.LBB4:
 510              		.loc 1 224 1 view .LVU162
 511              		.loc 1 224 1 view .LVU163
ARM GAS  /tmp/ccD97u9U.s 			page 14


 512 002a D3F8E020 		ldr	r2, [r3, #224]
 513 002e 42F00102 		orr	r2, r2, #1
 514 0032 C3F8E020 		str	r2, [r3, #224]
 515              		.loc 1 224 1 view .LVU164
 516 0036 D3F8E020 		ldr	r2, [r3, #224]
 517 003a 02F00102 		and	r2, r2, #1
 518 003e 0192     		str	r2, [sp, #4]
 519              		.loc 1 224 1 view .LVU165
 520 0040 019A     		ldr	r2, [sp, #4]
 521              	.LBE4:
 522              		.loc 1 224 1 view .LVU166
 225:../../../init/init.c **** __HAL_RCC_GPIOE_CLK_ENABLE();
 523              		.loc 1 225 1 view .LVU167
 524              	.LBB5:
 525              		.loc 1 225 1 view .LVU168
 526              		.loc 1 225 1 view .LVU169
 527 0042 D3F8E020 		ldr	r2, [r3, #224]
 528 0046 42F01002 		orr	r2, r2, #16
 529 004a C3F8E020 		str	r2, [r3, #224]
 530              		.loc 1 225 1 view .LVU170
 531 004e D3F8E030 		ldr	r3, [r3, #224]
 532 0052 03F01003 		and	r3, r3, #16
 533 0056 0293     		str	r3, [sp, #8]
 534              		.loc 1 225 1 view .LVU171
 535 0058 029B     		ldr	r3, [sp, #8]
 536              	.LBE5:
 537              		.loc 1 225 1 view .LVU172
 226:../../../init/init.c **** 
 227:../../../init/init.c **** /*--------------------------- LED MCU PINS -----------------------------------*/
 228:../../../init/init.c **** 
 229:../../../init/init.c **** /*Configure GPIO pin Output Level */
 230:../../../init/init.c **** HAL_GPIO_WritePin( STATUS_GPIO_PORT, 
 538              		.loc 1 230 1 view .LVU173
 539 005a 0B4D     		ldr	r5, .L36+4
 540 005c 0122     		movs	r2, #1
 541 005e 4FF4E051 		mov	r1, #7168
 542 0062 2846     		mov	r0, r5
 543 0064 FFF7FEFF 		bl	HAL_GPIO_WritePin
 544              	.LVL23:
 231:../../../init/init.c **** 			       STATUS_R_PIN      |
 232:../../../init/init.c **** 		           STATUS_G_PIN      |
 233:../../../init/init.c ****                    STATUS_B_PIN    , 
 234:../../../init/init.c **** 				   GPIO_PIN_SET );
 235:../../../init/init.c **** 
 236:../../../init/init.c **** /*Configure GPIO pins : PE10 PE11 PE12 */
 237:../../../init/init.c **** GPIO_InitStruct.Pin   = STATUS_R_PIN |
 545              		.loc 1 237 1 view .LVU174
 546              		.loc 1 237 23 is_stmt 0 view .LVU175
 547 0068 4FF4E053 		mov	r3, #7168
 548 006c 0393     		str	r3, [sp, #12]
 238:../../../init/init.c ****                         STATUS_G_PIN |
 239:../../../init/init.c ****                         STATUS_B_PIN;
 240:../../../init/init.c **** GPIO_InitStruct.Mode  = GPIO_MODE_OUTPUT_OD;
 549              		.loc 1 240 1 is_stmt 1 view .LVU176
 550              		.loc 1 240 23 is_stmt 0 view .LVU177
 551 006e 1123     		movs	r3, #17
 552 0070 0493     		str	r3, [sp, #16]
ARM GAS  /tmp/ccD97u9U.s 			page 15


 241:../../../init/init.c **** GPIO_InitStruct.Pull  = GPIO_NOPULL;
 553              		.loc 1 241 1 is_stmt 1 view .LVU178
 554              		.loc 1 241 23 is_stmt 0 view .LVU179
 555 0072 0594     		str	r4, [sp, #20]
 242:../../../init/init.c **** GPIO_InitStruct.Speed = GPIO_SPEED_FREQ_LOW;
 556              		.loc 1 242 1 is_stmt 1 view .LVU180
 557              		.loc 1 242 23 is_stmt 0 view .LVU181
 558 0074 0694     		str	r4, [sp, #24]
 243:../../../init/init.c **** HAL_GPIO_Init( GPIOE, &GPIO_InitStruct );
 559              		.loc 1 243 1 is_stmt 1 view .LVU182
 560 0076 03A9     		add	r1, sp, #12
 561 0078 2846     		mov	r0, r5
 562 007a FFF7FEFF 		bl	HAL_GPIO_Init
 563              	.LVL24:
 244:../../../init/init.c **** 
 245:../../../init/init.c **** } /* GPIO_Init */
 564              		.loc 1 245 1 is_stmt 0 view .LVU183
 565 007e 09B0     		add	sp, sp, #36
 566              	.LCFI8:
 567              		.cfi_def_cfa_offset 12
 568              		@ sp needed
 569 0080 30BD     		pop	{r4, r5, pc}
 570              	.L37:
 571 0082 00BF     		.align	2
 572              	.L36:
 573 0084 00440258 		.word	1476543488
 574 0088 00100258 		.word	1476530176
 575              		.cfi_endproc
 576              	.LFE147:
 578              		.text
 579              	.Letext0:
 580              		.file 2 "/usr/arm-none-eabi/include/machine/_default_types.h"
 581              		.file 3 "/usr/arm-none-eabi/include/sys/_stdint.h"
 582              		.file 4 "../../../lib/Drivers/CMSIS/Device/ST/STM32H7xx/Include/stm32h750xx.h"
 583              		.file 5 "../../../lib/Drivers/STM32H7xx_HAL_Driver/Inc/stm32h7xx_hal_def.h"
 584              		.file 6 "../../../lib/Drivers/STM32H7xx_HAL_Driver/Inc/stm32h7xx_hal_rcc.h"
 585              		.file 7 "../../../lib/Drivers/STM32H7xx_HAL_Driver/Inc/stm32h7xx_hal_gpio.h"
 586              		.file 8 "../../../lib/Drivers/STM32H7xx_HAL_Driver/Inc/stm32h7xx_hal_dma.h"
 587              		.file 9 "../../../lib/Drivers/STM32H7xx_HAL_Driver/Inc/stm32h7xx_hal_uart.h"
 588              		.file 10 "../../../lib/sdr_pin_defines_A0005.h"
 589              		.file 11 "../../../lib/util/sdr_error.h"
 590              		.file 12 "../../../lib/Drivers/STM32H7xx_HAL_Driver/Inc/stm32h7xx_hal_uart_ex.h"
 591              		.file 13 "./main.h"
 592              		.file 14 "../../../lib/Drivers/STM32H7xx_HAL_Driver/Inc/stm32h7xx_hal_pwr_ex.h"
 593              		.file 15 "<built-in>"
ARM GAS  /tmp/ccD97u9U.s 			page 16

