ARM GAS  /tmp/ccvxktP2.s 			page 1


   1              		.cpu cortex-m7
   2              		.arch armv7e-m
   3              		.fpu fpv5-d16
   4              		.eabi_attribute 28, 1
   5              		.eabi_attribute 20, 1
   6              		.eabi_attribute 21, 1
   7              		.eabi_attribute 23, 3
   8              		.eabi_attribute 24, 1
   9              		.eabi_attribute 25, 1
  10              		.eabi_attribute 26, 1
  11              		.eabi_attribute 30, 1
  12              		.eabi_attribute 34, 1
  13              		.eabi_attribute 18, 4
  14              		.file	"stm32h7xx_hal_msp.c"
  15              		.text
  16              	.Ltext0:
  17              		.cfi_sections	.debug_frame
  18              		.file 1 "config/Src/stm32h7xx_hal_msp.c"
  19              		.section	.text.HAL_MspInit,"ax",%progbits
  20              		.align	1
  21              		.global	HAL_MspInit
  22              		.syntax unified
  23              		.thumb
  24              		.thumb_func
  26              	HAL_MspInit:
  27              	.LFB144:
   1:config/Src/stm32h7xx_hal_msp.c **** /*******************************************************************************
   2:config/Src/stm32h7xx_hal_msp.c **** *                                                                              *
   3:config/Src/stm32h7xx_hal_msp.c **** * FILE:                                                                        *
   4:config/Src/stm32h7xx_hal_msp.c **** *       stm32h7xx_hal_msp.c                                                    *
   5:config/Src/stm32h7xx_hal_msp.c **** *                                                                              *
   6:config/Src/stm32h7xx_hal_msp.c **** * DESCRIPTION:                                                                 *
   7:config/Src/stm32h7xx_hal_msp.c **** *       Contains implementation of MSP initialization and de-initialization    *
   8:config/Src/stm32h7xx_hal_msp.c **** *                routines                                                      *
   9:config/Src/stm32h7xx_hal_msp.c **** *                                                                              *
  10:config/Src/stm32h7xx_hal_msp.c **** *******************************************************************************/
  11:config/Src/stm32h7xx_hal_msp.c **** 
  12:config/Src/stm32h7xx_hal_msp.c **** 
  13:config/Src/stm32h7xx_hal_msp.c **** /*------------------------------------------------------------------------------
  14:config/Src/stm32h7xx_hal_msp.c **** Standard Includes                                                                     
  15:config/Src/stm32h7xx_hal_msp.c **** ------------------------------------------------------------------------------*/
  16:config/Src/stm32h7xx_hal_msp.c **** #include "main.h"
  17:config/Src/stm32h7xx_hal_msp.c **** 
  18:config/Src/stm32h7xx_hal_msp.c **** 
  19:config/Src/stm32h7xx_hal_msp.c **** /*******************************************************************************
  20:config/Src/stm32h7xx_hal_msp.c **** *                                                                              *
  21:config/Src/stm32h7xx_hal_msp.c **** * PROCEDURE:                                                                   *
  22:config/Src/stm32h7xx_hal_msp.c **** *       HAL_MspInit                                                            *
  23:config/Src/stm32h7xx_hal_msp.c **** *                                                                              *
  24:config/Src/stm32h7xx_hal_msp.c **** * DESCRIPTION:                                                                 *
  25:config/Src/stm32h7xx_hal_msp.c **** *       Initializes the Global MSP                                             *
  26:config/Src/stm32h7xx_hal_msp.c **** *                                                                              *
  27:config/Src/stm32h7xx_hal_msp.c **** *******************************************************************************/
  28:config/Src/stm32h7xx_hal_msp.c **** void HAL_MspInit
  29:config/Src/stm32h7xx_hal_msp.c **** 	(
  30:config/Src/stm32h7xx_hal_msp.c **** 	void
  31:config/Src/stm32h7xx_hal_msp.c **** 	)
ARM GAS  /tmp/ccvxktP2.s 			page 2


  32:config/Src/stm32h7xx_hal_msp.c **** {
  28              		.loc 1 32 1 view -0
  29              		.cfi_startproc
  30              		@ args = 0, pretend = 0, frame = 8
  31              		@ frame_needed = 0, uses_anonymous_args = 0
  32              		@ link register save eliminated.
  33 0000 82B0     		sub	sp, sp, #8
  34              	.LCFI0:
  35              		.cfi_def_cfa_offset 8
  33:config/Src/stm32h7xx_hal_msp.c **** 
  34:config/Src/stm32h7xx_hal_msp.c **** __HAL_RCC_SYSCFG_CLK_ENABLE();
  36              		.loc 1 34 1 view .LVU1
  37              	.LBB2:
  38              		.loc 1 34 1 view .LVU2
  39              		.loc 1 34 1 view .LVU3
  40 0002 074B     		ldr	r3, .L3
  41 0004 D3F8F420 		ldr	r2, [r3, #244]
  42 0008 42F00202 		orr	r2, r2, #2
  43 000c C3F8F420 		str	r2, [r3, #244]
  44              		.loc 1 34 1 view .LVU4
  45 0010 D3F8F430 		ldr	r3, [r3, #244]
  46 0014 03F00203 		and	r3, r3, #2
  47 0018 0193     		str	r3, [sp, #4]
  48              		.loc 1 34 1 view .LVU5
  49 001a 019B     		ldr	r3, [sp, #4]
  50              	.LBE2:
  51              		.loc 1 34 1 view .LVU6
  35:config/Src/stm32h7xx_hal_msp.c **** 
  36:config/Src/stm32h7xx_hal_msp.c **** } /* HAL_MspInit */
  52              		.loc 1 36 1 is_stmt 0 view .LVU7
  53 001c 02B0     		add	sp, sp, #8
  54              	.LCFI1:
  55              		.cfi_def_cfa_offset 0
  56              		@ sp needed
  57 001e 7047     		bx	lr
  58              	.L4:
  59              		.align	2
  60              	.L3:
  61 0020 00440258 		.word	1476543488
  62              		.cfi_endproc
  63              	.LFE144:
  65              		.section	.text.HAL_UART_MspInit,"ax",%progbits
  66              		.align	1
  67              		.global	HAL_UART_MspInit
  68              		.syntax unified
  69              		.thumb
  70              		.thumb_func
  72              	HAL_UART_MspInit:
  73              	.LVL0:
  74              	.LFB145:
  37:config/Src/stm32h7xx_hal_msp.c **** 
  38:config/Src/stm32h7xx_hal_msp.c **** 
  39:config/Src/stm32h7xx_hal_msp.c **** /*******************************************************************************
  40:config/Src/stm32h7xx_hal_msp.c **** *                                                                              *
  41:config/Src/stm32h7xx_hal_msp.c **** * PROCEDURE:                                                                   *
  42:config/Src/stm32h7xx_hal_msp.c **** *       HAL_UART_MspInit                                                       *
  43:config/Src/stm32h7xx_hal_msp.c **** *                                                                              *
ARM GAS  /tmp/ccvxktP2.s 			page 3


  44:config/Src/stm32h7xx_hal_msp.c **** * DESCRIPTION:                                                                 *
  45:config/Src/stm32h7xx_hal_msp.c **** *       Initializes the UART MSP                                               *
  46:config/Src/stm32h7xx_hal_msp.c **** *                                                                              *
  47:config/Src/stm32h7xx_hal_msp.c **** *******************************************************************************/
  48:config/Src/stm32h7xx_hal_msp.c **** void HAL_UART_MspInit
  49:config/Src/stm32h7xx_hal_msp.c **** 	(
  50:config/Src/stm32h7xx_hal_msp.c **** 	UART_HandleTypeDef* huart
  51:config/Src/stm32h7xx_hal_msp.c **** 	)
  52:config/Src/stm32h7xx_hal_msp.c **** {
  75              		.loc 1 52 1 is_stmt 1 view -0
  76              		.cfi_startproc
  77              		@ args = 0, pretend = 0, frame = 224
  78              		@ frame_needed = 0, uses_anonymous_args = 0
  79              		.loc 1 52 1 is_stmt 0 view .LVU9
  80 0000 10B5     		push	{r4, lr}
  81              	.LCFI2:
  82              		.cfi_def_cfa_offset 8
  83              		.cfi_offset 4, -8
  84              		.cfi_offset 14, -4
  85 0002 B8B0     		sub	sp, sp, #224
  86              	.LCFI3:
  87              		.cfi_def_cfa_offset 232
  88 0004 0446     		mov	r4, r0
  53:config/Src/stm32h7xx_hal_msp.c **** GPIO_InitTypeDef GPIO_InitStruct = {0};
  89              		.loc 1 53 1 is_stmt 1 view .LVU10
  90              		.loc 1 53 18 is_stmt 0 view .LVU11
  91 0006 0021     		movs	r1, #0
  92 0008 3391     		str	r1, [sp, #204]
  93 000a 3491     		str	r1, [sp, #208]
  94 000c 3591     		str	r1, [sp, #212]
  95 000e 3691     		str	r1, [sp, #216]
  96 0010 3791     		str	r1, [sp, #220]
  54:config/Src/stm32h7xx_hal_msp.c **** RCC_PeriphCLKInitTypeDef PeriphClkInitStruct = {0};
  97              		.loc 1 54 1 is_stmt 1 view .LVU12
  98              		.loc 1 54 26 is_stmt 0 view .LVU13
  99 0012 BC22     		movs	r2, #188
 100 0014 04A8     		add	r0, sp, #16
 101              	.LVL1:
 102              		.loc 1 54 26 view .LVU14
 103 0016 FFF7FEFF 		bl	memset
 104              	.LVL2:
  55:config/Src/stm32h7xx_hal_msp.c **** if(huart->Instance==UART4)
 105              		.loc 1 55 1 is_stmt 1 view .LVU15
 106              		.loc 1 55 9 is_stmt 0 view .LVU16
 107 001a 2368     		ldr	r3, [r4]
 108              		.loc 1 55 3 view .LVU17
 109 001c 344A     		ldr	r2, .L15
 110 001e 9342     		cmp	r3, r2
 111 0020 04D0     		beq	.L11
  56:config/Src/stm32h7xx_hal_msp.c **** 	{
  57:config/Src/stm32h7xx_hal_msp.c **** 	/* Initializes the peripherals clock */
  58:config/Src/stm32h7xx_hal_msp.c **** 	PeriphClkInitStruct.PeriphClockSelection = RCC_PERIPHCLK_UART4;
  59:config/Src/stm32h7xx_hal_msp.c **** 	PeriphClkInitStruct.Usart234578ClockSelection = RCC_USART234578CLKSOURCE_D2PCLK1;
  60:config/Src/stm32h7xx_hal_msp.c **** 	if (HAL_RCCEx_PeriphCLKConfig(&PeriphClkInitStruct) != HAL_OK)
  61:config/Src/stm32h7xx_hal_msp.c **** 		{
  62:config/Src/stm32h7xx_hal_msp.c **** 		  Error_Handler();
  63:config/Src/stm32h7xx_hal_msp.c **** 		}
ARM GAS  /tmp/ccvxktP2.s 			page 4


  64:config/Src/stm32h7xx_hal_msp.c **** 
  65:config/Src/stm32h7xx_hal_msp.c **** 	/* Peripheral clock enable */
  66:config/Src/stm32h7xx_hal_msp.c **** 	__HAL_RCC_UART4_CLK_ENABLE();
  67:config/Src/stm32h7xx_hal_msp.c **** 	__HAL_RCC_GPIOA_CLK_ENABLE();
  68:config/Src/stm32h7xx_hal_msp.c **** 
  69:config/Src/stm32h7xx_hal_msp.c **** 	/**UART4 GPIO Configuration
  70:config/Src/stm32h7xx_hal_msp.c **** 	PA0     ------> UART4_TX
  71:config/Src/stm32h7xx_hal_msp.c **** 	PA1     ------> UART4_RX
  72:config/Src/stm32h7xx_hal_msp.c **** 	*/
  73:config/Src/stm32h7xx_hal_msp.c **** 	GPIO_InitStruct.Pin = GPIO_PIN_0|GPIO_PIN_1;
  74:config/Src/stm32h7xx_hal_msp.c **** 	GPIO_InitStruct.Mode = GPIO_MODE_AF_PP;
  75:config/Src/stm32h7xx_hal_msp.c **** 	GPIO_InitStruct.Pull = GPIO_NOPULL;
  76:config/Src/stm32h7xx_hal_msp.c **** 	GPIO_InitStruct.Speed = GPIO_SPEED_FREQ_LOW;
  77:config/Src/stm32h7xx_hal_msp.c **** 	GPIO_InitStruct.Alternate = GPIO_AF8_UART4;
  78:config/Src/stm32h7xx_hal_msp.c **** 	HAL_GPIO_Init(GPIOA, &GPIO_InitStruct);
  79:config/Src/stm32h7xx_hal_msp.c **** 
  80:config/Src/stm32h7xx_hal_msp.c **** 	}
  81:config/Src/stm32h7xx_hal_msp.c **** else if(huart->Instance==USART1)
 112              		.loc 1 81 6 is_stmt 1 view .LVU18
 113              		.loc 1 81 8 is_stmt 0 view .LVU19
 114 0022 344A     		ldr	r2, .L15+4
 115 0024 9342     		cmp	r3, r2
 116 0026 31D0     		beq	.L12
 117              	.L5:
  82:config/Src/stm32h7xx_hal_msp.c **** 	{
  83:config/Src/stm32h7xx_hal_msp.c **** 
  84:config/Src/stm32h7xx_hal_msp.c **** 	/* Initializes the peripherals clock */
  85:config/Src/stm32h7xx_hal_msp.c **** 	PeriphClkInitStruct.PeriphClockSelection = RCC_PERIPHCLK_USART1;
  86:config/Src/stm32h7xx_hal_msp.c **** 	PeriphClkInitStruct.Usart16ClockSelection = RCC_USART16CLKSOURCE_D2PCLK2;
  87:config/Src/stm32h7xx_hal_msp.c **** 	if (HAL_RCCEx_PeriphCLKConfig(&PeriphClkInitStruct) != HAL_OK)
  88:config/Src/stm32h7xx_hal_msp.c **** 		{
  89:config/Src/stm32h7xx_hal_msp.c **** 	  Error_Handler();
  90:config/Src/stm32h7xx_hal_msp.c **** 		}
  91:config/Src/stm32h7xx_hal_msp.c **** 
  92:config/Src/stm32h7xx_hal_msp.c **** 	/* Peripheral clock enable */
  93:config/Src/stm32h7xx_hal_msp.c **** 	__HAL_RCC_USART1_CLK_ENABLE();
  94:config/Src/stm32h7xx_hal_msp.c **** 
  95:config/Src/stm32h7xx_hal_msp.c **** 	__HAL_RCC_GPIOA_CLK_ENABLE();
  96:config/Src/stm32h7xx_hal_msp.c **** 	/**USART1 GPIO Configuration
  97:config/Src/stm32h7xx_hal_msp.c **** 	PA9     ------> USART1_TX
  98:config/Src/stm32h7xx_hal_msp.c **** 	PA10     ------> USART1_RX
  99:config/Src/stm32h7xx_hal_msp.c **** 	*/
 100:config/Src/stm32h7xx_hal_msp.c **** 	GPIO_InitStruct.Pin = GPIO_PIN_9|GPIO_PIN_10;
 101:config/Src/stm32h7xx_hal_msp.c **** 	GPIO_InitStruct.Mode = GPIO_MODE_AF_PP;
 102:config/Src/stm32h7xx_hal_msp.c **** 	GPIO_InitStruct.Pull = GPIO_NOPULL;
 103:config/Src/stm32h7xx_hal_msp.c **** 	GPIO_InitStruct.Speed = GPIO_SPEED_FREQ_LOW;
 104:config/Src/stm32h7xx_hal_msp.c **** 	GPIO_InitStruct.Alternate = GPIO_AF7_USART1;
 105:config/Src/stm32h7xx_hal_msp.c **** 	HAL_GPIO_Init(GPIOA, &GPIO_InitStruct);
 106:config/Src/stm32h7xx_hal_msp.c **** 
 107:config/Src/stm32h7xx_hal_msp.c **** 	}
 108:config/Src/stm32h7xx_hal_msp.c **** 
 109:config/Src/stm32h7xx_hal_msp.c **** } /* HAL_UART_MspInit */
 118              		.loc 1 109 1 view .LVU20
 119 0028 38B0     		add	sp, sp, #224
 120              	.LCFI4:
 121              		.cfi_remember_state
 122              		.cfi_def_cfa_offset 8
ARM GAS  /tmp/ccvxktP2.s 			page 5


 123              		@ sp needed
 124 002a 10BD     		pop	{r4, pc}
 125              	.LVL3:
 126              	.L11:
 127              	.LCFI5:
 128              		.cfi_restore_state
  58:config/Src/stm32h7xx_hal_msp.c **** 	PeriphClkInitStruct.Usart234578ClockSelection = RCC_USART234578CLKSOURCE_D2PCLK1;
 129              		.loc 1 58 2 is_stmt 1 view .LVU21
  58:config/Src/stm32h7xx_hal_msp.c **** 	PeriphClkInitStruct.Usart234578ClockSelection = RCC_USART234578CLKSOURCE_D2PCLK1;
 130              		.loc 1 58 43 is_stmt 0 view .LVU22
 131 002c 0223     		movs	r3, #2
 132 002e 0493     		str	r3, [sp, #16]
  59:config/Src/stm32h7xx_hal_msp.c **** 	if (HAL_RCCEx_PeriphCLKConfig(&PeriphClkInitStruct) != HAL_OK)
 133              		.loc 1 59 2 is_stmt 1 view .LVU23
  60:config/Src/stm32h7xx_hal_msp.c **** 		{
 134              		.loc 1 60 2 view .LVU24
  60:config/Src/stm32h7xx_hal_msp.c **** 		{
 135              		.loc 1 60 6 is_stmt 0 view .LVU25
 136 0030 04A8     		add	r0, sp, #16
 137 0032 FFF7FEFF 		bl	HAL_RCCEx_PeriphCLKConfig
 138              	.LVL4:
  60:config/Src/stm32h7xx_hal_msp.c **** 		{
 139              		.loc 1 60 5 view .LVU26
 140 0036 30BB     		cbnz	r0, .L13
 141              	.L7:
  66:config/Src/stm32h7xx_hal_msp.c **** 	__HAL_RCC_GPIOA_CLK_ENABLE();
 142              		.loc 1 66 2 is_stmt 1 view .LVU27
 143              	.LBB3:
  66:config/Src/stm32h7xx_hal_msp.c **** 	__HAL_RCC_GPIOA_CLK_ENABLE();
 144              		.loc 1 66 2 view .LVU28
  66:config/Src/stm32h7xx_hal_msp.c **** 	__HAL_RCC_GPIOA_CLK_ENABLE();
 145              		.loc 1 66 2 view .LVU29
 146 0038 2F4B     		ldr	r3, .L15+8
 147 003a D3F8E820 		ldr	r2, [r3, #232]
 148 003e 42F40022 		orr	r2, r2, #524288
 149 0042 C3F8E820 		str	r2, [r3, #232]
  66:config/Src/stm32h7xx_hal_msp.c **** 	__HAL_RCC_GPIOA_CLK_ENABLE();
 150              		.loc 1 66 2 view .LVU30
 151 0046 D3F8E820 		ldr	r2, [r3, #232]
 152 004a 02F40022 		and	r2, r2, #524288
 153 004e 0092     		str	r2, [sp]
  66:config/Src/stm32h7xx_hal_msp.c **** 	__HAL_RCC_GPIOA_CLK_ENABLE();
 154              		.loc 1 66 2 view .LVU31
 155 0050 009A     		ldr	r2, [sp]
 156              	.LBE3:
  66:config/Src/stm32h7xx_hal_msp.c **** 	__HAL_RCC_GPIOA_CLK_ENABLE();
 157              		.loc 1 66 2 view .LVU32
  67:config/Src/stm32h7xx_hal_msp.c **** 
 158              		.loc 1 67 2 view .LVU33
 159              	.LBB4:
  67:config/Src/stm32h7xx_hal_msp.c **** 
 160              		.loc 1 67 2 view .LVU34
  67:config/Src/stm32h7xx_hal_msp.c **** 
 161              		.loc 1 67 2 view .LVU35
 162 0052 D3F8E020 		ldr	r2, [r3, #224]
 163 0056 42F00102 		orr	r2, r2, #1
 164 005a C3F8E020 		str	r2, [r3, #224]
ARM GAS  /tmp/ccvxktP2.s 			page 6


  67:config/Src/stm32h7xx_hal_msp.c **** 
 165              		.loc 1 67 2 view .LVU36
 166 005e D3F8E030 		ldr	r3, [r3, #224]
 167 0062 03F00103 		and	r3, r3, #1
 168 0066 0193     		str	r3, [sp, #4]
  67:config/Src/stm32h7xx_hal_msp.c **** 
 169              		.loc 1 67 2 view .LVU37
 170 0068 019B     		ldr	r3, [sp, #4]
 171              	.LBE4:
  67:config/Src/stm32h7xx_hal_msp.c **** 
 172              		.loc 1 67 2 view .LVU38
  73:config/Src/stm32h7xx_hal_msp.c **** 	GPIO_InitStruct.Mode = GPIO_MODE_AF_PP;
 173              		.loc 1 73 2 view .LVU39
  73:config/Src/stm32h7xx_hal_msp.c **** 	GPIO_InitStruct.Mode = GPIO_MODE_AF_PP;
 174              		.loc 1 73 22 is_stmt 0 view .LVU40
 175 006a 0323     		movs	r3, #3
 176 006c 3393     		str	r3, [sp, #204]
  74:config/Src/stm32h7xx_hal_msp.c **** 	GPIO_InitStruct.Pull = GPIO_NOPULL;
 177              		.loc 1 74 2 is_stmt 1 view .LVU41
  74:config/Src/stm32h7xx_hal_msp.c **** 	GPIO_InitStruct.Pull = GPIO_NOPULL;
 178              		.loc 1 74 23 is_stmt 0 view .LVU42
 179 006e 0223     		movs	r3, #2
 180 0070 3493     		str	r3, [sp, #208]
  75:config/Src/stm32h7xx_hal_msp.c **** 	GPIO_InitStruct.Speed = GPIO_SPEED_FREQ_LOW;
 181              		.loc 1 75 2 is_stmt 1 view .LVU43
  75:config/Src/stm32h7xx_hal_msp.c **** 	GPIO_InitStruct.Speed = GPIO_SPEED_FREQ_LOW;
 182              		.loc 1 75 23 is_stmt 0 view .LVU44
 183 0072 0023     		movs	r3, #0
 184 0074 3593     		str	r3, [sp, #212]
  76:config/Src/stm32h7xx_hal_msp.c **** 	GPIO_InitStruct.Alternate = GPIO_AF8_UART4;
 185              		.loc 1 76 2 is_stmt 1 view .LVU45
  76:config/Src/stm32h7xx_hal_msp.c **** 	GPIO_InitStruct.Alternate = GPIO_AF8_UART4;
 186              		.loc 1 76 24 is_stmt 0 view .LVU46
 187 0076 3693     		str	r3, [sp, #216]
  77:config/Src/stm32h7xx_hal_msp.c **** 	HAL_GPIO_Init(GPIOA, &GPIO_InitStruct);
 188              		.loc 1 77 2 is_stmt 1 view .LVU47
  77:config/Src/stm32h7xx_hal_msp.c **** 	HAL_GPIO_Init(GPIOA, &GPIO_InitStruct);
 189              		.loc 1 77 28 is_stmt 0 view .LVU48
 190 0078 0823     		movs	r3, #8
 191 007a 3793     		str	r3, [sp, #220]
  78:config/Src/stm32h7xx_hal_msp.c **** 
 192              		.loc 1 78 2 is_stmt 1 view .LVU49
 193 007c 33A9     		add	r1, sp, #204
 194 007e 1F48     		ldr	r0, .L15+12
 195 0080 FFF7FEFF 		bl	HAL_GPIO_Init
 196              	.LVL5:
 197 0084 D0E7     		b	.L5
 198              	.L13:
  62:config/Src/stm32h7xx_hal_msp.c **** 		}
 199              		.loc 1 62 5 view .LVU50
 200 0086 FFF7FEFF 		bl	Error_Handler
 201              	.LVL6:
 202 008a D5E7     		b	.L7
 203              	.L12:
  85:config/Src/stm32h7xx_hal_msp.c **** 	PeriphClkInitStruct.Usart16ClockSelection = RCC_USART16CLKSOURCE_D2PCLK2;
 204              		.loc 1 85 2 view .LVU51
  85:config/Src/stm32h7xx_hal_msp.c **** 	PeriphClkInitStruct.Usart16ClockSelection = RCC_USART16CLKSOURCE_D2PCLK2;
ARM GAS  /tmp/ccvxktP2.s 			page 7


 205              		.loc 1 85 43 is_stmt 0 view .LVU52
 206 008c 0123     		movs	r3, #1
 207 008e 0493     		str	r3, [sp, #16]
  86:config/Src/stm32h7xx_hal_msp.c **** 	if (HAL_RCCEx_PeriphCLKConfig(&PeriphClkInitStruct) != HAL_OK)
 208              		.loc 1 86 2 is_stmt 1 view .LVU53
  87:config/Src/stm32h7xx_hal_msp.c **** 		{
 209              		.loc 1 87 2 view .LVU54
  87:config/Src/stm32h7xx_hal_msp.c **** 		{
 210              		.loc 1 87 6 is_stmt 0 view .LVU55
 211 0090 04A8     		add	r0, sp, #16
 212 0092 FFF7FEFF 		bl	HAL_RCCEx_PeriphCLKConfig
 213              	.LVL7:
  87:config/Src/stm32h7xx_hal_msp.c **** 		{
 214              		.loc 1 87 5 view .LVU56
 215 0096 38BB     		cbnz	r0, .L14
 216              	.L9:
  93:config/Src/stm32h7xx_hal_msp.c **** 
 217              		.loc 1 93 2 is_stmt 1 view .LVU57
 218              	.LBB5:
  93:config/Src/stm32h7xx_hal_msp.c **** 
 219              		.loc 1 93 2 view .LVU58
  93:config/Src/stm32h7xx_hal_msp.c **** 
 220              		.loc 1 93 2 view .LVU59
 221 0098 174B     		ldr	r3, .L15+8
 222 009a D3F8F020 		ldr	r2, [r3, #240]
 223 009e 42F01002 		orr	r2, r2, #16
 224 00a2 C3F8F020 		str	r2, [r3, #240]
  93:config/Src/stm32h7xx_hal_msp.c **** 
 225              		.loc 1 93 2 view .LVU60
 226 00a6 D3F8F020 		ldr	r2, [r3, #240]
 227 00aa 02F01002 		and	r2, r2, #16
 228 00ae 0292     		str	r2, [sp, #8]
  93:config/Src/stm32h7xx_hal_msp.c **** 
 229              		.loc 1 93 2 view .LVU61
 230 00b0 029A     		ldr	r2, [sp, #8]
 231              	.LBE5:
  93:config/Src/stm32h7xx_hal_msp.c **** 
 232              		.loc 1 93 2 view .LVU62
  95:config/Src/stm32h7xx_hal_msp.c **** 	/**USART1 GPIO Configuration
 233              		.loc 1 95 2 view .LVU63
 234              	.LBB6:
  95:config/Src/stm32h7xx_hal_msp.c **** 	/**USART1 GPIO Configuration
 235              		.loc 1 95 2 view .LVU64
  95:config/Src/stm32h7xx_hal_msp.c **** 	/**USART1 GPIO Configuration
 236              		.loc 1 95 2 view .LVU65
 237 00b2 D3F8E020 		ldr	r2, [r3, #224]
 238 00b6 42F00102 		orr	r2, r2, #1
 239 00ba C3F8E020 		str	r2, [r3, #224]
  95:config/Src/stm32h7xx_hal_msp.c **** 	/**USART1 GPIO Configuration
 240              		.loc 1 95 2 view .LVU66
 241 00be D3F8E030 		ldr	r3, [r3, #224]
 242 00c2 03F00103 		and	r3, r3, #1
 243 00c6 0393     		str	r3, [sp, #12]
  95:config/Src/stm32h7xx_hal_msp.c **** 	/**USART1 GPIO Configuration
 244              		.loc 1 95 2 view .LVU67
 245 00c8 039B     		ldr	r3, [sp, #12]
 246              	.LBE6:
ARM GAS  /tmp/ccvxktP2.s 			page 8


  95:config/Src/stm32h7xx_hal_msp.c **** 	/**USART1 GPIO Configuration
 247              		.loc 1 95 2 view .LVU68
 100:config/Src/stm32h7xx_hal_msp.c **** 	GPIO_InitStruct.Mode = GPIO_MODE_AF_PP;
 248              		.loc 1 100 2 view .LVU69
 100:config/Src/stm32h7xx_hal_msp.c **** 	GPIO_InitStruct.Mode = GPIO_MODE_AF_PP;
 249              		.loc 1 100 22 is_stmt 0 view .LVU70
 250 00ca 4FF4C063 		mov	r3, #1536
 251 00ce 3393     		str	r3, [sp, #204]
 101:config/Src/stm32h7xx_hal_msp.c **** 	GPIO_InitStruct.Pull = GPIO_NOPULL;
 252              		.loc 1 101 2 is_stmt 1 view .LVU71
 101:config/Src/stm32h7xx_hal_msp.c **** 	GPIO_InitStruct.Pull = GPIO_NOPULL;
 253              		.loc 1 101 23 is_stmt 0 view .LVU72
 254 00d0 0223     		movs	r3, #2
 255 00d2 3493     		str	r3, [sp, #208]
 102:config/Src/stm32h7xx_hal_msp.c **** 	GPIO_InitStruct.Speed = GPIO_SPEED_FREQ_LOW;
 256              		.loc 1 102 2 is_stmt 1 view .LVU73
 102:config/Src/stm32h7xx_hal_msp.c **** 	GPIO_InitStruct.Speed = GPIO_SPEED_FREQ_LOW;
 257              		.loc 1 102 23 is_stmt 0 view .LVU74
 258 00d4 0023     		movs	r3, #0
 259 00d6 3593     		str	r3, [sp, #212]
 103:config/Src/stm32h7xx_hal_msp.c **** 	GPIO_InitStruct.Alternate = GPIO_AF7_USART1;
 260              		.loc 1 103 2 is_stmt 1 view .LVU75
 103:config/Src/stm32h7xx_hal_msp.c **** 	GPIO_InitStruct.Alternate = GPIO_AF7_USART1;
 261              		.loc 1 103 24 is_stmt 0 view .LVU76
 262 00d8 3693     		str	r3, [sp, #216]
 104:config/Src/stm32h7xx_hal_msp.c **** 	HAL_GPIO_Init(GPIOA, &GPIO_InitStruct);
 263              		.loc 1 104 2 is_stmt 1 view .LVU77
 104:config/Src/stm32h7xx_hal_msp.c **** 	HAL_GPIO_Init(GPIOA, &GPIO_InitStruct);
 264              		.loc 1 104 28 is_stmt 0 view .LVU78
 265 00da 0723     		movs	r3, #7
 266 00dc 3793     		str	r3, [sp, #220]
 105:config/Src/stm32h7xx_hal_msp.c **** 
 267              		.loc 1 105 2 is_stmt 1 view .LVU79
 268 00de 33A9     		add	r1, sp, #204
 269 00e0 0648     		ldr	r0, .L15+12
 270 00e2 FFF7FEFF 		bl	HAL_GPIO_Init
 271              	.LVL8:
 272              		.loc 1 109 1 is_stmt 0 view .LVU80
 273 00e6 9FE7     		b	.L5
 274              	.L14:
  89:config/Src/stm32h7xx_hal_msp.c **** 		}
 275              		.loc 1 89 4 is_stmt 1 view .LVU81
 276 00e8 FFF7FEFF 		bl	Error_Handler
 277              	.LVL9:
 278 00ec D4E7     		b	.L9
 279              	.L16:
 280 00ee 00BF     		.align	2
 281              	.L15:
 282 00f0 004C0040 		.word	1073761280
 283 00f4 00100140 		.word	1073811456
 284 00f8 00440258 		.word	1476543488
 285 00fc 00000258 		.word	1476526080
 286              		.cfi_endproc
 287              	.LFE145:
 289              		.section	.text.HAL_UART_MspDeInit,"ax",%progbits
 290              		.align	1
 291              		.global	HAL_UART_MspDeInit
ARM GAS  /tmp/ccvxktP2.s 			page 9


 292              		.syntax unified
 293              		.thumb
 294              		.thumb_func
 296              	HAL_UART_MspDeInit:
 297              	.LVL10:
 298              	.LFB146:
 110:config/Src/stm32h7xx_hal_msp.c **** 
 111:config/Src/stm32h7xx_hal_msp.c **** 
 112:config/Src/stm32h7xx_hal_msp.c **** /*******************************************************************************
 113:config/Src/stm32h7xx_hal_msp.c **** *                                                                              *
 114:config/Src/stm32h7xx_hal_msp.c **** * PROCEDURE:                                                                   *
 115:config/Src/stm32h7xx_hal_msp.c **** *       HAL_UART_MspDeInit                                                     *
 116:config/Src/stm32h7xx_hal_msp.c **** *                                                                              *
 117:config/Src/stm32h7xx_hal_msp.c **** * DESCRIPTION:                                                                 *
 118:config/Src/stm32h7xx_hal_msp.c **** *       Initializes the UART MSP                                               *
 119:config/Src/stm32h7xx_hal_msp.c **** *                                                                              *
 120:config/Src/stm32h7xx_hal_msp.c **** *******************************************************************************/
 121:config/Src/stm32h7xx_hal_msp.c **** void HAL_UART_MspDeInit
 122:config/Src/stm32h7xx_hal_msp.c **** 	(
 123:config/Src/stm32h7xx_hal_msp.c **** 	UART_HandleTypeDef* huart
 124:config/Src/stm32h7xx_hal_msp.c **** 	)
 125:config/Src/stm32h7xx_hal_msp.c **** {
 299              		.loc 1 125 1 view -0
 300              		.cfi_startproc
 301              		@ args = 0, pretend = 0, frame = 0
 302              		@ frame_needed = 0, uses_anonymous_args = 0
 303              		.loc 1 125 1 is_stmt 0 view .LVU83
 304 0000 08B5     		push	{r3, lr}
 305              	.LCFI6:
 306              		.cfi_def_cfa_offset 8
 307              		.cfi_offset 3, -8
 308              		.cfi_offset 14, -4
 126:config/Src/stm32h7xx_hal_msp.c **** if(huart->Instance==UART4)
 309              		.loc 1 126 1 is_stmt 1 view .LVU84
 310              		.loc 1 126 9 is_stmt 0 view .LVU85
 311 0002 0368     		ldr	r3, [r0]
 312              		.loc 1 126 3 view .LVU86
 313 0004 0F4A     		ldr	r2, .L23
 314 0006 9342     		cmp	r3, r2
 315 0008 03D0     		beq	.L21
 127:config/Src/stm32h7xx_hal_msp.c **** 	{
 128:config/Src/stm32h7xx_hal_msp.c **** 	/* Peripheral clock disable */
 129:config/Src/stm32h7xx_hal_msp.c **** 	__HAL_RCC_UART4_CLK_DISABLE();
 130:config/Src/stm32h7xx_hal_msp.c **** 
 131:config/Src/stm32h7xx_hal_msp.c **** 	/**UART4 GPIO Configuration
 132:config/Src/stm32h7xx_hal_msp.c **** 	PA0     ------> UART4_TX
 133:config/Src/stm32h7xx_hal_msp.c **** 	PA1     ------> UART4_RX
 134:config/Src/stm32h7xx_hal_msp.c **** 	*/
 135:config/Src/stm32h7xx_hal_msp.c **** 	HAL_GPIO_DeInit(GPIOA, GPIO_PIN_0|GPIO_PIN_1);
 136:config/Src/stm32h7xx_hal_msp.c **** 
 137:config/Src/stm32h7xx_hal_msp.c **** 	}
 138:config/Src/stm32h7xx_hal_msp.c **** 	else if(huart->Instance==USART1)
 316              		.loc 1 138 7 is_stmt 1 view .LVU87
 317              		.loc 1 138 9 is_stmt 0 view .LVU88
 318 000a 0F4A     		ldr	r2, .L23+4
 319 000c 9342     		cmp	r3, r2
 320 000e 0CD0     		beq	.L22
ARM GAS  /tmp/ccvxktP2.s 			page 10


 321              	.LVL11:
 322              	.L17:
 139:config/Src/stm32h7xx_hal_msp.c **** 	{
 140:config/Src/stm32h7xx_hal_msp.c **** 	/* Peripheral clock disable */
 141:config/Src/stm32h7xx_hal_msp.c **** 	__HAL_RCC_USART1_CLK_DISABLE();
 142:config/Src/stm32h7xx_hal_msp.c **** 
 143:config/Src/stm32h7xx_hal_msp.c **** 	/**USART1 GPIO Configuration
 144:config/Src/stm32h7xx_hal_msp.c **** 	PA9     ------> USART1_TX
 145:config/Src/stm32h7xx_hal_msp.c **** 	PA10     ------> USART1_RX
 146:config/Src/stm32h7xx_hal_msp.c **** 	*/
 147:config/Src/stm32h7xx_hal_msp.c **** 	HAL_GPIO_DeInit(GPIOA, GPIO_PIN_9|GPIO_PIN_10);
 148:config/Src/stm32h7xx_hal_msp.c **** 
 149:config/Src/stm32h7xx_hal_msp.c **** 	}
 150:config/Src/stm32h7xx_hal_msp.c **** 
 151:config/Src/stm32h7xx_hal_msp.c **** } /* HAL_UART_MspDeInit */
 323              		.loc 1 151 1 view .LVU89
 324 0010 08BD     		pop	{r3, pc}
 325              	.LVL12:
 326              	.L21:
 129:config/Src/stm32h7xx_hal_msp.c **** 
 327              		.loc 1 129 2 is_stmt 1 view .LVU90
 328 0012 0E4A     		ldr	r2, .L23+8
 329 0014 D2F8E830 		ldr	r3, [r2, #232]
 330 0018 23F40023 		bic	r3, r3, #524288
 331 001c C2F8E830 		str	r3, [r2, #232]
 135:config/Src/stm32h7xx_hal_msp.c **** 
 332              		.loc 1 135 2 view .LVU91
 333 0020 0321     		movs	r1, #3
 334 0022 0B48     		ldr	r0, .L23+12
 335              	.LVL13:
 135:config/Src/stm32h7xx_hal_msp.c **** 
 336              		.loc 1 135 2 is_stmt 0 view .LVU92
 337 0024 FFF7FEFF 		bl	HAL_GPIO_DeInit
 338              	.LVL14:
 339 0028 F2E7     		b	.L17
 340              	.LVL15:
 341              	.L22:
 141:config/Src/stm32h7xx_hal_msp.c **** 
 342              		.loc 1 141 2 is_stmt 1 view .LVU93
 343 002a 084A     		ldr	r2, .L23+8
 344 002c D2F8F030 		ldr	r3, [r2, #240]
 345 0030 23F01003 		bic	r3, r3, #16
 346 0034 C2F8F030 		str	r3, [r2, #240]
 147:config/Src/stm32h7xx_hal_msp.c **** 
 347              		.loc 1 147 2 view .LVU94
 348 0038 4FF4C061 		mov	r1, #1536
 349 003c 0448     		ldr	r0, .L23+12
 350              	.LVL16:
 147:config/Src/stm32h7xx_hal_msp.c **** 
 351              		.loc 1 147 2 is_stmt 0 view .LVU95
 352 003e FFF7FEFF 		bl	HAL_GPIO_DeInit
 353              	.LVL17:
 354              		.loc 1 151 1 view .LVU96
 355 0042 E5E7     		b	.L17
 356              	.L24:
 357              		.align	2
 358              	.L23:
ARM GAS  /tmp/ccvxktP2.s 			page 11


 359 0044 004C0040 		.word	1073761280
 360 0048 00100140 		.word	1073811456
 361 004c 00440258 		.word	1476543488
 362 0050 00000258 		.word	1476526080
 363              		.cfi_endproc
 364              	.LFE146:
 366              		.text
 367              	.Letext0:
 368              		.file 2 "/usr/arm-none-eabi/include/machine/_default_types.h"
 369              		.file 3 "/usr/arm-none-eabi/include/sys/_stdint.h"
 370              		.file 4 "../../lib/Drivers/CMSIS/Device/ST/STM32H7xx/Include/stm32h750xx.h"
 371              		.file 5 "../../lib/Drivers/STM32H7xx_HAL_Driver/Inc/stm32h7xx_hal_def.h"
 372              		.file 6 "../../lib/Drivers/STM32H7xx_HAL_Driver/Inc/stm32h7xx_hal_rcc_ex.h"
 373              		.file 7 "../../lib/Drivers/STM32H7xx_HAL_Driver/Inc/stm32h7xx_hal_gpio.h"
 374              		.file 8 "../../lib/Drivers/STM32H7xx_HAL_Driver/Inc/stm32h7xx_hal_dma.h"
 375              		.file 9 "../../lib/Drivers/STM32H7xx_HAL_Driver/Inc/stm32h7xx_hal_uart.h"
 376              		.file 10 "./main.h"
 377              		.file 11 "<built-in>"
ARM GAS  /tmp/ccvxktP2.s 			page 12

