ARM GAS  /tmp/ccT9lod7.s 			page 1


   1              		.cpu cortex-m7
   2              		.arch armv7e-m
   3              		.fpu fpv5-d16
   4              		.eabi_attribute 28, 1
   5              		.eabi_attribute 20, 1
   6              		.eabi_attribute 21, 1
   7              		.eabi_attribute 23, 3
   8              		.eabi_attribute 24, 1
   9              		.eabi_attribute 25, 1
  10              		.eabi_attribute 26, 1
  11              		.eabi_attribute 30, 1
  12              		.eabi_attribute 34, 1
  13              		.eabi_attribute 18, 4
  14              		.file	"wireless.c"
  15              		.text
  16              	.Ltext0:
  17              		.cfi_sections	.debug_frame
  18              		.file 1 "../../mod/wireless/wireless.c"
  19              		.section	.text.rf_xbee_transmit_byte,"ax",%progbits
  20              		.align	1
  21              		.global	rf_xbee_transmit_byte
  22              		.syntax unified
  23              		.thumb
  24              		.thumb_func
  26              	rf_xbee_transmit_byte:
  27              	.LVL0:
  28              	.LFB144:
   1:../../mod/wireless/wireless.c **** /*******************************************************************************
   2:../../mod/wireless/wireless.c **** *
   3:../../mod/wireless/wireless.c **** * FILE: 
   4:../../mod/wireless/wireless.c **** * 		wireless.c
   5:../../mod/wireless/wireless.c **** *
   6:../../mod/wireless/wireless.c **** * DESCRIPTION: 
   7:../../mod/wireless/wireless.c **** * 		Contains API functions to transmit data wirelessly using the XBee and 
   8:../../mod/wireless/wireless.c **** *       and LoRa modules 
   9:../../mod/wireless/wireless.c **** *
  10:../../mod/wireless/wireless.c **** *******************************************************************************/
  11:../../mod/wireless/wireless.c **** 
  12:../../mod/wireless/wireless.c **** 
  13:../../mod/wireless/wireless.c **** /*------------------------------------------------------------------------------
  14:../../mod/wireless/wireless.c ****  Standard Includes                                                                     
  15:../../mod/wireless/wireless.c **** ------------------------------------------------------------------------------*/
  16:../../mod/wireless/wireless.c **** #if defined( GROUND_STATION )
  17:../../mod/wireless/wireless.c **** 	#include "sdr_pin_defines_A0005.h"
  18:../../mod/wireless/wireless.c **** #elif defined( ENGINE_CONTROLLER )
  19:../../mod/wireless/wireless.c **** 	#include "sdr_pin_defines_L0002.h"
  20:../../mod/wireless/wireless.c **** #endif
  21:../../mod/wireless/wireless.c **** 
  22:../../mod/wireless/wireless.c **** /*------------------------------------------------------------------------------
  23:../../mod/wireless/wireless.c ****  Project Includes                                                                     
  24:../../mod/wireless/wireless.c **** ------------------------------------------------------------------------------*/
  25:../../mod/wireless/wireless.c **** #include "main.h"
  26:../../mod/wireless/wireless.c **** #include "wireless.h"
  27:../../mod/wireless/wireless.c **** 
  28:../../mod/wireless/wireless.c **** 
  29:../../mod/wireless/wireless.c **** /*------------------------------------------------------------------------------
  30:../../mod/wireless/wireless.c **** Global Variables                                                                  
ARM GAS  /tmp/ccT9lod7.s 			page 2


  31:../../mod/wireless/wireless.c **** ------------------------------------------------------------------------------*/
  32:../../mod/wireless/wireless.c **** 
  33:../../mod/wireless/wireless.c **** 
  34:../../mod/wireless/wireless.c **** /*------------------------------------------------------------------------------
  35:../../mod/wireless/wireless.c ****  Procedures 
  36:../../mod/wireless/wireless.c **** ------------------------------------------------------------------------------*/
  37:../../mod/wireless/wireless.c **** 
  38:../../mod/wireless/wireless.c **** 
  39:../../mod/wireless/wireless.c **** /*******************************************************************************
  40:../../mod/wireless/wireless.c **** *                                                                              *
  41:../../mod/wireless/wireless.c **** * PROCEDURE:                                                                   *
  42:../../mod/wireless/wireless.c **** * 		rf_xbee_transmit_byte                                                  *
  43:../../mod/wireless/wireless.c **** *                                                                              *
  44:../../mod/wireless/wireless.c **** * DESCRIPTION:                                                                 *
  45:../../mod/wireless/wireless.c **** * 		transmits a byte wirelessly using the xbee module                      *
  46:../../mod/wireless/wireless.c **** *                                                                              *
  47:../../mod/wireless/wireless.c **** *******************************************************************************/
  48:../../mod/wireless/wireless.c **** RF_STATUS rf_xbee_transmit_byte 
  49:../../mod/wireless/wireless.c **** 	(
  50:../../mod/wireless/wireless.c ****     uint8_t tx_byte	
  51:../../mod/wireless/wireless.c **** 	)
  52:../../mod/wireless/wireless.c **** {
  29              		.loc 1 52 1 view -0
  30              		.cfi_startproc
  31              		@ args = 0, pretend = 0, frame = 8
  32              		@ frame_needed = 0, uses_anonymous_args = 0
  33              		.loc 1 52 1 is_stmt 0 view .LVU1
  34 0000 00B5     		push	{lr}
  35              	.LCFI0:
  36              		.cfi_def_cfa_offset 4
  37              		.cfi_offset 14, -4
  38 0002 83B0     		sub	sp, sp, #12
  39              	.LCFI1:
  40              		.cfi_def_cfa_offset 16
  41 0004 8DF80700 		strb	r0, [sp, #7]
  53:../../mod/wireless/wireless.c **** /*------------------------------------------------------------------------------
  54:../../mod/wireless/wireless.c ****  Local Variables
  55:../../mod/wireless/wireless.c **** ------------------------------------------------------------------------------*/
  56:../../mod/wireless/wireless.c **** HAL_StatusTypeDef hal_status;    /* Return codes from HAL */
  42              		.loc 1 56 1 is_stmt 1 view .LVU2
  57:../../mod/wireless/wireless.c **** 
  58:../../mod/wireless/wireless.c **** 
  59:../../mod/wireless/wireless.c **** /*------------------------------------------------------------------------------
  60:../../mod/wireless/wireless.c ****  Initializations 
  61:../../mod/wireless/wireless.c **** ------------------------------------------------------------------------------*/
  62:../../mod/wireless/wireless.c **** hal_status = HAL_OK;
  43              		.loc 1 62 1 view .LVU3
  44              	.LVL1:
  63:../../mod/wireless/wireless.c **** 
  64:../../mod/wireless/wireless.c **** 
  65:../../mod/wireless/wireless.c **** /*------------------------------------------------------------------------------
  66:../../mod/wireless/wireless.c ****  API Function Implementation 
  67:../../mod/wireless/wireless.c **** ------------------------------------------------------------------------------*/
  68:../../mod/wireless/wireless.c **** 
  69:../../mod/wireless/wireless.c **** /* Transmit byte */
  70:../../mod/wireless/wireless.c **** hal_status = HAL_UART_Transmit( &( XBEE_HUART )  ,
  45              		.loc 1 70 1 view .LVU4
ARM GAS  /tmp/ccT9lod7.s 			page 3


  46              		.loc 1 70 14 is_stmt 0 view .LVU5
  47 0008 0123     		movs	r3, #1
  48 000a 1A46     		mov	r2, r3
  49 000c 0DF10701 		add	r1, sp, #7
  50 0010 0348     		ldr	r0, .L4
  51              	.LVL2:
  52              		.loc 1 70 14 view .LVU6
  53 0012 FFF7FEFF 		bl	HAL_UART_Transmit
  54              	.LVL3:
  71:../../mod/wireless/wireless.c ****                                 &tx_byte         , 
  72:../../mod/wireless/wireless.c ****                                 sizeof( tx_byte ), 
  73:../../mod/wireless/wireless.c ****                                 RF_TIMEOUT );
  74:../../mod/wireless/wireless.c **** 
  75:../../mod/wireless/wireless.c **** /* Return HAL status */
  76:../../mod/wireless/wireless.c **** if ( hal_status != HAL_OK )
  55              		.loc 1 76 1 is_stmt 1 view .LVU7
  56              		.loc 1 76 4 is_stmt 0 view .LVU8
  57 0016 00B1     		cbz	r0, .L2
  77:../../mod/wireless/wireless.c **** 	{
  78:../../mod/wireless/wireless.c **** 	return RF_ERROR;
  58              		.loc 1 78 9 view .LVU9
  59 0018 0120     		movs	r0, #1
  60              	.LVL4:
  61              	.L2:
  79:../../mod/wireless/wireless.c **** 	}
  80:../../mod/wireless/wireless.c **** else
  81:../../mod/wireless/wireless.c **** 	{
  82:../../mod/wireless/wireless.c **** 	return RF_OK;
  83:../../mod/wireless/wireless.c **** 	}
  84:../../mod/wireless/wireless.c **** 
  85:../../mod/wireless/wireless.c **** } /* rf_xbee_transmit_byte */
  62              		.loc 1 85 1 view .LVU10
  63 001a 03B0     		add	sp, sp, #12
  64              	.LCFI2:
  65              		.cfi_def_cfa_offset 4
  66              		@ sp needed
  67 001c 5DF804FB 		ldr	pc, [sp], #4
  68              	.L5:
  69              		.align	2
  70              	.L4:
  71 0020 00000000 		.word	huart4
  72              		.cfi_endproc
  73              	.LFE144:
  75              		.section	.text.rf_xbee_transmit,"ax",%progbits
  76              		.align	1
  77              		.global	rf_xbee_transmit
  78              		.syntax unified
  79              		.thumb
  80              		.thumb_func
  82              	rf_xbee_transmit:
  83              	.LVL5:
  84              	.LFB145:
  86:../../mod/wireless/wireless.c **** 
  87:../../mod/wireless/wireless.c **** 
  88:../../mod/wireless/wireless.c **** /*******************************************************************************
  89:../../mod/wireless/wireless.c **** *                                                                              *
  90:../../mod/wireless/wireless.c **** * PROCEDURE:                                                                   *
ARM GAS  /tmp/ccT9lod7.s 			page 4


  91:../../mod/wireless/wireless.c **** * 		rf_xbee_transmit                                                       *
  92:../../mod/wireless/wireless.c **** *                                                                              *
  93:../../mod/wireless/wireless.c **** * DESCRIPTION:                                                                 *
  94:../../mod/wireless/wireless.c **** * 		transmits a buffer of bytes wirelessly using the xbee module           *
  95:../../mod/wireless/wireless.c **** *                                                                              *
  96:../../mod/wireless/wireless.c **** *******************************************************************************/
  97:../../mod/wireless/wireless.c **** RF_STATUS rf_xbee_transmit
  98:../../mod/wireless/wireless.c **** 	(
  99:../../mod/wireless/wireless.c ****     void*  tx_buffer_ptr,   /* Pointer to buffer data    */
 100:../../mod/wireless/wireless.c **** 	size_t buffer_size	    /* Number of bytes in buffer */
 101:../../mod/wireless/wireless.c **** 	)
 102:../../mod/wireless/wireless.c **** {
  85              		.loc 1 102 1 is_stmt 1 view -0
  86              		.cfi_startproc
  87              		@ args = 0, pretend = 0, frame = 0
  88              		@ frame_needed = 0, uses_anonymous_args = 0
  89              		.loc 1 102 1 is_stmt 0 view .LVU12
  90 0000 08B5     		push	{r3, lr}
  91              	.LCFI3:
  92              		.cfi_def_cfa_offset 8
  93              		.cfi_offset 3, -8
  94              		.cfi_offset 14, -4
  95 0002 0B46     		mov	r3, r1
 103:../../mod/wireless/wireless.c **** /*------------------------------------------------------------------------------
 104:../../mod/wireless/wireless.c ****  Local Variables
 105:../../mod/wireless/wireless.c **** ------------------------------------------------------------------------------*/
 106:../../mod/wireless/wireless.c **** HAL_StatusTypeDef hal_status;    /* Return codes from HAL */
  96              		.loc 1 106 1 is_stmt 1 view .LVU13
 107:../../mod/wireless/wireless.c **** uint32_t          timeout;       /* UART transmit timeout */
  97              		.loc 1 107 1 view .LVU14
 108:../../mod/wireless/wireless.c **** 
 109:../../mod/wireless/wireless.c **** 
 110:../../mod/wireless/wireless.c **** /*------------------------------------------------------------------------------
 111:../../mod/wireless/wireless.c ****  Initializations 
 112:../../mod/wireless/wireless.c **** ------------------------------------------------------------------------------*/
 113:../../mod/wireless/wireless.c **** hal_status = HAL_OK;
  98              		.loc 1 113 1 view .LVU15
  99              	.LVL6:
 114:../../mod/wireless/wireless.c **** timeout    = RF_TIMEOUT*buffer_size;
 100              		.loc 1 114 1 view .LVU16
 115:../../mod/wireless/wireless.c **** 
 116:../../mod/wireless/wireless.c **** 
 117:../../mod/wireless/wireless.c **** /*------------------------------------------------------------------------------
 118:../../mod/wireless/wireless.c ****  API Function Implementation 
 119:../../mod/wireless/wireless.c **** ------------------------------------------------------------------------------*/
 120:../../mod/wireless/wireless.c **** 
 121:../../mod/wireless/wireless.c **** /* Transmit byte */
 122:../../mod/wireless/wireless.c **** hal_status = HAL_UART_Transmit( &( XBEE_HUART ),
 101              		.loc 1 122 1 view .LVU17
 102              		.loc 1 122 14 is_stmt 0 view .LVU18
 103 0004 8AB2     		uxth	r2, r1
 104 0006 0146     		mov	r1, r0
 105              	.LVL7:
 106              		.loc 1 122 14 view .LVU19
 107 0008 0248     		ldr	r0, .L9
 108              	.LVL8:
 109              		.loc 1 122 14 view .LVU20
ARM GAS  /tmp/ccT9lod7.s 			page 5


 110 000a FFF7FEFF 		bl	HAL_UART_Transmit
 111              	.LVL9:
 123:../../mod/wireless/wireless.c ****                                 tx_buffer_ptr  , 
 124:../../mod/wireless/wireless.c ****                                 buffer_size    , 
 125:../../mod/wireless/wireless.c ****                                 timeout );
 126:../../mod/wireless/wireless.c **** 
 127:../../mod/wireless/wireless.c **** /* Return HAL status */
 128:../../mod/wireless/wireless.c **** if ( hal_status != HAL_OK )
 112              		.loc 1 128 1 is_stmt 1 view .LVU21
 113              		.loc 1 128 4 is_stmt 0 view .LVU22
 114 000e 00B1     		cbz	r0, .L7
 129:../../mod/wireless/wireless.c **** 	{
 130:../../mod/wireless/wireless.c **** 	return RF_ERROR;
 115              		.loc 1 130 9 view .LVU23
 116 0010 0120     		movs	r0, #1
 117              	.L7:
 131:../../mod/wireless/wireless.c **** 	}
 132:../../mod/wireless/wireless.c **** else
 133:../../mod/wireless/wireless.c **** 	{
 134:../../mod/wireless/wireless.c **** 	return RF_OK;
 135:../../mod/wireless/wireless.c **** 	}
 136:../../mod/wireless/wireless.c **** 
 137:../../mod/wireless/wireless.c **** } /* rf_xbee_transmit */
 118              		.loc 1 137 1 view .LVU24
 119 0012 08BD     		pop	{r3, pc}
 120              	.L10:
 121              		.align	2
 122              	.L9:
 123 0014 00000000 		.word	huart4
 124              		.cfi_endproc
 125              	.LFE145:
 127              		.section	.text.rf_xbee_receive_byte,"ax",%progbits
 128              		.align	1
 129              		.global	rf_xbee_receive_byte
 130              		.syntax unified
 131              		.thumb
 132              		.thumb_func
 134              	rf_xbee_receive_byte:
 135              	.LVL10:
 136              	.LFB146:
 138:../../mod/wireless/wireless.c **** 
 139:../../mod/wireless/wireless.c **** 
 140:../../mod/wireless/wireless.c **** /*******************************************************************************
 141:../../mod/wireless/wireless.c **** *                                                                              *
 142:../../mod/wireless/wireless.c **** * PROCEDURE:                                                                   *
 143:../../mod/wireless/wireless.c **** * 		rf_xbee_receieve_byte                                                  *
 144:../../mod/wireless/wireless.c **** *                                                                              *
 145:../../mod/wireless/wireless.c **** * DESCRIPTION:                                                                 *
 146:../../mod/wireless/wireless.c **** * 		Receives a byte from the xbee module                                   *
 147:../../mod/wireless/wireless.c **** *                                                                              *
 148:../../mod/wireless/wireless.c **** *******************************************************************************/
 149:../../mod/wireless/wireless.c **** RF_STATUS rf_xbee_receive_byte 
 150:../../mod/wireless/wireless.c **** 	(
 151:../../mod/wireless/wireless.c **** 	uint8_t* p_rx_byte	
 152:../../mod/wireless/wireless.c **** 	)
 153:../../mod/wireless/wireless.c **** {
 137              		.loc 1 153 1 is_stmt 1 view -0
ARM GAS  /tmp/ccT9lod7.s 			page 6


 138              		.cfi_startproc
 139              		@ args = 0, pretend = 0, frame = 0
 140              		@ frame_needed = 0, uses_anonymous_args = 0
 141              		.loc 1 153 1 is_stmt 0 view .LVU26
 142 0000 08B5     		push	{r3, lr}
 143              	.LCFI4:
 144              		.cfi_def_cfa_offset 8
 145              		.cfi_offset 3, -8
 146              		.cfi_offset 14, -4
 147 0002 0146     		mov	r1, r0
 154:../../mod/wireless/wireless.c **** /*------------------------------------------------------------------------------
 155:../../mod/wireless/wireless.c ****  Local Variables
 156:../../mod/wireless/wireless.c **** ------------------------------------------------------------------------------*/
 157:../../mod/wireless/wireless.c **** HAL_StatusTypeDef hal_status;
 148              		.loc 1 157 1 is_stmt 1 view .LVU27
 158:../../mod/wireless/wireless.c **** 
 159:../../mod/wireless/wireless.c **** 
 160:../../mod/wireless/wireless.c **** /*------------------------------------------------------------------------------
 161:../../mod/wireless/wireless.c ****  Initializations
 162:../../mod/wireless/wireless.c **** ------------------------------------------------------------------------------*/
 163:../../mod/wireless/wireless.c **** hal_status = HAL_OK;
 149              		.loc 1 163 1 view .LVU28
 150              	.LVL11:
 164:../../mod/wireless/wireless.c **** 
 165:../../mod/wireless/wireless.c **** 
 166:../../mod/wireless/wireless.c **** /*------------------------------------------------------------------------------
 167:../../mod/wireless/wireless.c ****  API Function Implementation 
 168:../../mod/wireless/wireless.c **** ------------------------------------------------------------------------------*/
 169:../../mod/wireless/wireless.c **** 
 170:../../mod/wireless/wireless.c **** /* Receive byte */
 171:../../mod/wireless/wireless.c **** hal_status = HAL_UART_Receive( &( XBEE_HUART )  ,
 151              		.loc 1 171 1 view .LVU29
 152              		.loc 1 171 14 is_stmt 0 view .LVU30
 153 0004 0123     		movs	r3, #1
 154 0006 1A46     		mov	r2, r3
 155 0008 0248     		ldr	r0, .L14
 156              	.LVL12:
 157              		.loc 1 171 14 view .LVU31
 158 000a FFF7FEFF 		bl	HAL_UART_Receive
 159              	.LVL13:
 172:../../mod/wireless/wireless.c ****                                p_rx_byte        , 
 173:../../mod/wireless/wireless.c ****                                sizeof( uint8_t ), 
 174:../../mod/wireless/wireless.c ****                                RF_TIMEOUT );
 175:../../mod/wireless/wireless.c **** 
 176:../../mod/wireless/wireless.c **** /* Return HAL status */
 177:../../mod/wireless/wireless.c **** switch ( hal_status )
 160              		.loc 1 177 1 is_stmt 1 view .LVU32
 161 000e 00B1     		cbz	r0, .L12
 178:../../mod/wireless/wireless.c **** 	{
 179:../../mod/wireless/wireless.c **** 	case HAL_TIMEOUT:
 180:../../mod/wireless/wireless.c **** 		{
 181:../../mod/wireless/wireless.c **** 		return RF_TIMEOUT;
 162              		.loc 1 181 10 is_stmt 0 view .LVU33
 163 0010 0120     		movs	r0, #1
 164              	.LVL14:
 165              	.L12:
 182:../../mod/wireless/wireless.c **** 		}
ARM GAS  /tmp/ccT9lod7.s 			page 7


 183:../../mod/wireless/wireless.c **** 	case HAL_OK:
 184:../../mod/wireless/wireless.c **** 		{
 185:../../mod/wireless/wireless.c **** 		return RF_OK;
 186:../../mod/wireless/wireless.c **** 		}
 187:../../mod/wireless/wireless.c **** 	default:
 188:../../mod/wireless/wireless.c **** 		{
 189:../../mod/wireless/wireless.c **** 		return RF_ERROR;
 190:../../mod/wireless/wireless.c ****         }
 191:../../mod/wireless/wireless.c **** 	}
 192:../../mod/wireless/wireless.c **** } /* rf_xbee_receive_byte */
 166              		.loc 1 192 1 view .LVU34
 167 0012 08BD     		pop	{r3, pc}
 168              	.L15:
 169              		.align	2
 170              	.L14:
 171 0014 00000000 		.word	huart4
 172              		.cfi_endproc
 173              	.LFE146:
 175              		.section	.text.rf_xbee_receive,"ax",%progbits
 176              		.align	1
 177              		.global	rf_xbee_receive
 178              		.syntax unified
 179              		.thumb
 180              		.thumb_func
 182              	rf_xbee_receive:
 183              	.LVL15:
 184              	.LFB147:
 193:../../mod/wireless/wireless.c **** 
 194:../../mod/wireless/wireless.c **** 
 195:../../mod/wireless/wireless.c **** /*******************************************************************************
 196:../../mod/wireless/wireless.c **** *                                                                              *
 197:../../mod/wireless/wireless.c **** * PROCEDURE:                                                                   *
 198:../../mod/wireless/wireless.c **** * 		rf_xbee_receive                                                        *
 199:../../mod/wireless/wireless.c **** *                                                                              *
 200:../../mod/wireless/wireless.c **** * DESCRIPTION:                                                                 *
 201:../../mod/wireless/wireless.c **** * 		Receives data from the xbee module and outputs to a buffer             *
 202:../../mod/wireless/wireless.c **** *                                                                              *
 203:../../mod/wireless/wireless.c **** *******************************************************************************/
 204:../../mod/wireless/wireless.c **** RF_STATUS rf_xbee_receive
 205:../../mod/wireless/wireless.c **** 	(
 206:../../mod/wireless/wireless.c **** 	void*  rx_buffer_ptr,   /* Pointer to output data buffer */	
 207:../../mod/wireless/wireless.c **** 	size_t rx_buffer_size   /* Number of bytes to recevie    */
 208:../../mod/wireless/wireless.c **** 	)
 209:../../mod/wireless/wireless.c **** {
 185              		.loc 1 209 1 is_stmt 1 view -0
 186              		.cfi_startproc
 187              		@ args = 0, pretend = 0, frame = 0
 188              		@ frame_needed = 0, uses_anonymous_args = 0
 189              		.loc 1 209 1 is_stmt 0 view .LVU36
 190 0000 08B5     		push	{r3, lr}
 191              	.LCFI5:
 192              		.cfi_def_cfa_offset 8
 193              		.cfi_offset 3, -8
 194              		.cfi_offset 14, -4
 210:../../mod/wireless/wireless.c **** /*------------------------------------------------------------------------------
 211:../../mod/wireless/wireless.c ****  Local Variables
 212:../../mod/wireless/wireless.c **** ------------------------------------------------------------------------------*/
ARM GAS  /tmp/ccT9lod7.s 			page 8


 213:../../mod/wireless/wireless.c **** HAL_StatusTypeDef hal_status;    /* Return codes from HAL */
 195              		.loc 1 213 1 is_stmt 1 view .LVU37
 214:../../mod/wireless/wireless.c **** uint32_t          timeout;       /* UART receive timeout  */
 196              		.loc 1 214 1 view .LVU38
 215:../../mod/wireless/wireless.c **** 
 216:../../mod/wireless/wireless.c **** 
 217:../../mod/wireless/wireless.c **** /*------------------------------------------------------------------------------
 218:../../mod/wireless/wireless.c ****  Initialization 
 219:../../mod/wireless/wireless.c **** ------------------------------------------------------------------------------*/
 220:../../mod/wireless/wireless.c **** hal_status = HAL_OK;
 197              		.loc 1 220 1 view .LVU39
 198              	.LVL16:
 221:../../mod/wireless/wireless.c **** timeout    = rx_buffer_size*RF_TIMEOUT;
 199              		.loc 1 221 1 view .LVU40
 222:../../mod/wireless/wireless.c **** 
 223:../../mod/wireless/wireless.c **** 
 224:../../mod/wireless/wireless.c **** /*------------------------------------------------------------------------------
 225:../../mod/wireless/wireless.c ****  API Function Implementation 
 226:../../mod/wireless/wireless.c **** ------------------------------------------------------------------------------*/
 227:../../mod/wireless/wireless.c **** 
 228:../../mod/wireless/wireless.c **** /* Receive data */
 229:../../mod/wireless/wireless.c **** hal_status = HAL_UART_Receive( &( XBEE_HUART ),
 200              		.loc 1 229 1 view .LVU41
 201              		.loc 1 229 14 is_stmt 0 view .LVU42
 202 0002 0123     		movs	r3, #1
 203 0004 8AB2     		uxth	r2, r1
 204 0006 0146     		mov	r1, r0
 205              	.LVL17:
 206              		.loc 1 229 14 view .LVU43
 207 0008 0248     		ldr	r0, .L19
 208              	.LVL18:
 209              		.loc 1 229 14 view .LVU44
 210 000a FFF7FEFF 		bl	HAL_UART_Receive
 211              	.LVL19:
 230:../../mod/wireless/wireless.c ****                                rx_buffer_ptr  , 
 231:../../mod/wireless/wireless.c ****                                timeout        , 
 232:../../mod/wireless/wireless.c ****                                RF_TIMEOUT );
 233:../../mod/wireless/wireless.c **** 
 234:../../mod/wireless/wireless.c **** /* Return HAL status */
 235:../../mod/wireless/wireless.c **** switch ( hal_status )
 212              		.loc 1 235 1 is_stmt 1 view .LVU45
 213 000e 00B1     		cbz	r0, .L17
 236:../../mod/wireless/wireless.c **** 	{
 237:../../mod/wireless/wireless.c **** 	case HAL_TIMEOUT:
 238:../../mod/wireless/wireless.c **** 		{
 239:../../mod/wireless/wireless.c **** 		return RF_TIMEOUT;
 214              		.loc 1 239 10 is_stmt 0 view .LVU46
 215 0010 0120     		movs	r0, #1
 216              	.LVL20:
 217              	.L17:
 240:../../mod/wireless/wireless.c **** 		}
 241:../../mod/wireless/wireless.c **** 	case HAL_OK:
 242:../../mod/wireless/wireless.c **** 		{
 243:../../mod/wireless/wireless.c **** 		return RF_OK;
 244:../../mod/wireless/wireless.c **** 		}
 245:../../mod/wireless/wireless.c **** 	default:
 246:../../mod/wireless/wireless.c **** 		{
ARM GAS  /tmp/ccT9lod7.s 			page 9


 247:../../mod/wireless/wireless.c **** 		return RF_ERROR;
 248:../../mod/wireless/wireless.c ****         }
 249:../../mod/wireless/wireless.c **** 	}
 250:../../mod/wireless/wireless.c **** } /* rf_xbee_receive */
 218              		.loc 1 250 1 view .LVU47
 219 0012 08BD     		pop	{r3, pc}
 220              	.L20:
 221              		.align	2
 222              	.L19:
 223 0014 00000000 		.word	huart4
 224              		.cfi_endproc
 225              	.LFE147:
 227              		.text
 228              	.Letext0:
 229              		.file 2 "/usr/arm-none-eabi/include/machine/_default_types.h"
 230              		.file 3 "/usr/arm-none-eabi/include/sys/_stdint.h"
 231              		.file 4 "../../lib/Drivers/CMSIS/Device/ST/STM32H7xx/Include/stm32h750xx.h"
 232              		.file 5 "/usr/lib/gcc/arm-none-eabi/12.2.0/include/stddef.h"
 233              		.file 6 "../../lib/Drivers/STM32H7xx_HAL_Driver/Inc/stm32h7xx_hal_def.h"
 234              		.file 7 "../../lib/Drivers/STM32H7xx_HAL_Driver/Inc/stm32h7xx_hal_dma.h"
 235              		.file 8 "../../lib/Drivers/STM32H7xx_HAL_Driver/Inc/stm32h7xx_hal_uart.h"
 236              		.file 9 "../../mod/wireless/wireless.h"
 237              		.file 10 "../../lib/sdr_pin_defines_A0005.h"
ARM GAS  /tmp/ccT9lod7.s 			page 10

