ARM GAS  /tmp/cca5PHjt.s 			page 1


   1              		.cpu cortex-m7
   2              		.arch armv7e-m
   3              		.fpu fpv5-d16
   4              		.eabi_attribute 28, 1
   5              		.eabi_attribute 20, 1
   6              		.eabi_attribute 21, 1
   7              		.eabi_attribute 23, 3
   8              		.eabi_attribute 24, 1
   9              		.eabi_attribute 25, 1
  10              		.eabi_attribute 26, 1
  11              		.eabi_attribute 30, 1
  12              		.eabi_attribute 34, 1
  13              		.eabi_attribute 18, 4
  14              		.file	"main.c"
  15              		.text
  16              	.Ltext0:
  17              		.cfi_sections	.debug_frame
  18              		.file 1 "main.c"
  19              		.section	.text.GPIO_Init,"ax",%progbits
  20              		.align	1
  21              		.syntax unified
  22              		.thumb
  23              		.thumb_func
  25              	GPIO_Init:
  26              	.LFB148:
   1:main.c        **** /*******************************************************************************
   2:main.c        **** *
   3:main.c        **** * FILE: 
   4:main.c        **** *       main.c
   5:main.c        **** *
   6:main.c        **** * DESCRIPTION: 
   7:main.c        **** *		Transmits data recieved over UART/USB in order to test the wireless 
   8:main.c        **** *       transcievers
   9:main.c        **** *
  10:main.c        **** *******************************************************************************/
  11:main.c        **** 
  12:main.c        **** 
  13:main.c        **** /*------------------------------------------------------------------------------
  14:main.c        **** Standard Includes                                                                     
  15:main.c        **** ------------------------------------------------------------------------------*/
  16:main.c        **** 
  17:main.c        **** 
  18:main.c        **** /*------------------------------------------------------------------------------
  19:main.c        **** Project Includes                                                                     
  20:main.c        **** ------------------------------------------------------------------------------*/
  21:main.c        **** 
  22:main.c        **** /* Pin definitions and main prototypes */
  23:main.c        **** #include "main.h"
  24:main.c        **** #include "sdr_pin_defines_A0005.h"
  25:main.c        **** 
  26:main.c        **** /* SDR Modules */
  27:main.c        **** #include "led.h"
  28:main.c        **** #include "usb.h"
  29:main.c        **** #include "wireless.h"
  30:main.c        **** 
  31:main.c        **** 
  32:main.c        **** /*------------------------------------------------------------------------------
ARM GAS  /tmp/cca5PHjt.s 			page 2


  33:main.c        **** Global Variables                                                                  
  34:main.c        **** ------------------------------------------------------------------------------*/
  35:main.c        **** 
  36:main.c        **** /* MCU Peripheral handles */
  37:main.c        **** UART_HandleTypeDef huart4; /* Xbee UART */
  38:main.c        **** UART_HandleTypeDef huart1; /* USB UART  */
  39:main.c        **** 
  40:main.c        **** /* Wireless Module Settings */
  41:main.c        **** WIRELESS_MOD_CODES wireless_mod = XBEE;
  42:main.c        **** 
  43:main.c        **** 
  44:main.c        **** /*------------------------------------------------------------------------------
  45:main.c        **** Typedefs                                                                  
  46:main.c        **** ------------------------------------------------------------------------------*/
  47:main.c        **** 
  48:main.c        **** 
  49:main.c        **** /*------------------------------------------------------------------------------
  50:main.c        **** Function prototypes                                                          
  51:main.c        **** ------------------------------------------------------------------------------*/
  52:main.c        **** void        SystemClock_Config( void );
  53:main.c        **** static void GPIO_Init         ( void );
  54:main.c        **** static void XBee_UART_Init    ( void );
  55:main.c        **** static void USB_UART_Init     ( void );
  56:main.c        **** 
  57:main.c        **** 
  58:main.c        **** /*------------------------------------------------------------------------------
  59:main.c        **** Application entry point                                                      
  60:main.c        **** ------------------------------------------------------------------------------*/
  61:main.c        **** int main
  62:main.c        **** 	(
  63:main.c        **** 	void
  64:main.c        **** 	)
  65:main.c        **** {
  66:main.c        **** /*------------------------------------------------------------------------------
  67:main.c        **** Local Variables 
  68:main.c        **** ------------------------------------------------------------------------------*/
  69:main.c        **** uint8_t    tx_byte;     /* Byte to transmit with wireless module */
  70:main.c        **** USB_STATUS usb_status;  /* Status of USB module               */
  71:main.c        **** RF_STATUS  rf_status;   /* Status of wireless module          */
  72:main.c        **** 
  73:main.c        **** 
  74:main.c        **** /*------------------------------------------------------------------------------
  75:main.c        **** MCU Initialization                                                                  
  76:main.c        **** ------------------------------------------------------------------------------*/
  77:main.c        **** HAL_Init();             /* CMSIS HAL */
  78:main.c        **** SystemClock_Config();   /* SysClock  */
  79:main.c        **** GPIO_Init();            /* GPIO Pins */
  80:main.c        **** XBee_UART_Init();       /* XBee      */
  81:main.c        **** USB_UART_Init();        /* USB       */
  82:main.c        **** 
  83:main.c        **** 
  84:main.c        **** /*------------------------------------------------------------------------------
  85:main.c        **** Event Loop                                                                  
  86:main.c        **** ------------------------------------------------------------------------------*/
  87:main.c        **** while (1)
  88:main.c        **** 	{
  89:main.c        **** 	/* Receive byte from USB port */
ARM GAS  /tmp/cca5PHjt.s 			page 3


  90:main.c        **** 	usb_status = usb_receive( &tx_byte         , 
  91:main.c        ****                               sizeof( uint8_t ), 
  92:main.c        ****                               HAL_DEFAULT_TIMEOUT );
  93:main.c        **** 
  94:main.c        **** 	/* Transmit byte with wireless module */
  95:main.c        **** 	if ( usb_status != USB_TIMEOUT )
  96:main.c        **** 		{
  97:main.c        **** 		switch ( wireless_mod )
  98:main.c        **** 			{
  99:main.c        **** 			case XBEE:
 100:main.c        **** 				{
 101:main.c        **** 				rf_status = rf_xbee_transmit_byte( tx_byte );
 102:main.c        **** 				if ( rf_status != RF_OK )
 103:main.c        **** 					{
 104:main.c        **** 					Error_Handler();
 105:main.c        **** 					}
 106:main.c        **** 				break;
 107:main.c        **** 				}
 108:main.c        **** 			case LORA:
 109:main.c        **** 				{
 110:main.c        **** 				// TODO: Implement lora transmit byte function
 111:main.c        **** 				// TODO: Get rid of Error_Handler()
 112:main.c        **** 				Error_Handler();
 113:main.c        **** 				break;
 114:main.c        **** 				}
 115:main.c        **** 			default:
 116:main.c        **** 				{
 117:main.c        **** 				/* Unrecognized wireless module, invoke error handler */
 118:main.c        **** 				Error_Handler();
 119:main.c        **** 				break;
 120:main.c        **** 				}
 121:main.c        **** 			}
 122:main.c        **** 		}
 123:main.c        **** 	else
 124:main.c        **** 		{
 125:main.c        **** 		/* USB timeout, do noting until next byte arrives */
 126:main.c        **** 		}
 127:main.c        **** 	}
 128:main.c        **** 
 129:main.c        **** } /* main */
 130:main.c        **** 
 131:main.c        **** 
 132:main.c        **** /*******************************************************************************
 133:main.c        **** *                                                                              *
 134:main.c        **** * PROCEDURE:                                                                   * 
 135:main.c        **** *       SystemClock_Config                                                     *
 136:main.c        **** *                                                                              *
 137:main.c        **** * DESCRIPTION:                                                                 * 
 138:main.c        **** *       Initializes the microcontroller clock. Enables peripheral clocks and   *
 139:main.c        **** *       sets prescalers                                                        *
 140:main.c        **** *                                                                              *
 141:main.c        **** *******************************************************************************/
 142:main.c        **** void SystemClock_Config
 143:main.c        **** 	(
 144:main.c        **** 	void
 145:main.c        **** 	)
 146:main.c        **** {
ARM GAS  /tmp/cca5PHjt.s 			page 4


 147:main.c        **** /* Initialization Structs */
 148:main.c        **** RCC_OscInitTypeDef RCC_OscInitStruct = {0};
 149:main.c        **** RCC_ClkInitTypeDef RCC_ClkInitStruct = {0};
 150:main.c        **** 
 151:main.c        **** /* Supply configuration update enable */
 152:main.c        **** HAL_PWREx_ConfigSupply(PWR_LDO_SUPPLY);
 153:main.c        **** 
 154:main.c        **** /* Configure the main internal regulator output voltage */
 155:main.c        **** __HAL_PWR_VOLTAGESCALING_CONFIG(PWR_REGULATOR_VOLTAGE_SCALE0);
 156:main.c        **** 
 157:main.c        **** while(!__HAL_PWR_GET_FLAG(PWR_FLAG_VOSRDY)) 
 158:main.c        **** 	{
 159:main.c        **** 	/* Wait for PWR_FLAG_VOSRDY flag */
 160:main.c        **** 	}
 161:main.c        **** 
 162:main.c        **** /* Initializes the RCC Oscillators according to the specified parameters
 163:main.c        ****    in the RCC_OscInitTypeDef structure. */
 164:main.c        **** RCC_OscInitStruct.OscillatorType = RCC_OSCILLATORTYPE_HSE;
 165:main.c        **** RCC_OscInitStruct.HSEState       = RCC_HSE_ON;
 166:main.c        **** RCC_OscInitStruct.PLL.PLLState   = RCC_PLL_ON;
 167:main.c        **** RCC_OscInitStruct.PLL.PLLSource  = RCC_PLLSOURCE_HSE;
 168:main.c        **** RCC_OscInitStruct.PLL.PLLM       = 2;
 169:main.c        **** RCC_OscInitStruct.PLL.PLLN       = 80;
 170:main.c        **** RCC_OscInitStruct.PLL.PLLP       = 2;
 171:main.c        **** RCC_OscInitStruct.PLL.PLLQ       = 2;
 172:main.c        **** RCC_OscInitStruct.PLL.PLLR       = 2;
 173:main.c        **** RCC_OscInitStruct.PLL.PLLRGE     = RCC_PLL1VCIRANGE_3;
 174:main.c        **** RCC_OscInitStruct.PLL.PLLVCOSEL  = RCC_PLL1VCOWIDE;
 175:main.c        **** RCC_OscInitStruct.PLL.PLLFRACN   = 0;
 176:main.c        **** if (HAL_RCC_OscConfig(&RCC_OscInitStruct) != HAL_OK)
 177:main.c        **** 	{
 178:main.c        **** 	Error_Handler();
 179:main.c        **** 	}
 180:main.c        **** 
 181:main.c        **** /* Initializes the CPU, AHB and APB buses clocks */
 182:main.c        **** RCC_ClkInitStruct.ClockType      = RCC_CLOCKTYPE_HCLK    |
 183:main.c        **** 	                               RCC_CLOCKTYPE_SYSCLK  |
 184:main.c        **** 						           RCC_CLOCKTYPE_PCLK1   |
 185:main.c        ****                                    RCC_CLOCKTYPE_PCLK2   |
 186:main.c        **** 						           RCC_CLOCKTYPE_D3PCLK1 |
 187:main.c        **** 		                           RCC_CLOCKTYPE_D1PCLK1;
 188:main.c        **** RCC_ClkInitStruct.SYSCLKSource   = RCC_SYSCLKSOURCE_PLLCLK;
 189:main.c        **** RCC_ClkInitStruct.SYSCLKDivider  = RCC_SYSCLK_DIV1;
 190:main.c        **** RCC_ClkInitStruct.AHBCLKDivider  = RCC_HCLK_DIV2;
 191:main.c        **** RCC_ClkInitStruct.APB3CLKDivider = RCC_APB3_DIV2;
 192:main.c        **** RCC_ClkInitStruct.APB1CLKDivider = RCC_APB1_DIV2;
 193:main.c        **** RCC_ClkInitStruct.APB2CLKDivider = RCC_APB2_DIV2;
 194:main.c        **** RCC_ClkInitStruct.APB4CLKDivider = RCC_APB4_DIV2;
 195:main.c        **** 
 196:main.c        **** /* Set the configuration */
 197:main.c        **** if (HAL_RCC_ClockConfig(&RCC_ClkInitStruct, FLASH_LATENCY_4) != HAL_OK)
 198:main.c        **** 	{
 199:main.c        **** 	Error_Handler();
 200:main.c        **** 	}
 201:main.c        **** } /* SystemClock_Config */
 202:main.c        **** 
 203:main.c        **** 
ARM GAS  /tmp/cca5PHjt.s 			page 5


 204:main.c        **** /*******************************************************************************
 205:main.c        **** *                                                                              *
 206:main.c        **** * PROCEDURE:                                                                   * 
 207:main.c        **** *       XBee_UART_Init                                                         *
 208:main.c        **** *                                                                              *
 209:main.c        **** * DESCRIPTION:                                                                 * 
 210:main.c        **** *		Initializes the UART peripheral attached to the XBee module            *
 211:main.c        **** *                                                                              *
 212:main.c        **** *******************************************************************************/
 213:main.c        **** static void XBee_UART_Init
 214:main.c        **** 	(
 215:main.c        **** 	void
 216:main.c        **** 	)
 217:main.c        **** {
 218:main.c        **** /* Fill configuration struct with UART settings */
 219:main.c        **** huart4.Instance                    = UART4;
 220:main.c        **** huart4.Init.BaudRate               = 9600;
 221:main.c        **** huart4.Init.WordLength             = UART_WORDLENGTH_8B;
 222:main.c        **** huart4.Init.StopBits               = UART_STOPBITS_1;
 223:main.c        **** huart4.Init.Parity                 = UART_PARITY_NONE;
 224:main.c        **** huart4.Init.Mode                   = UART_MODE_TX_RX;
 225:main.c        **** huart4.Init.HwFlowCtl              = UART_HWCONTROL_NONE;
 226:main.c        **** huart4.Init.OverSampling           = UART_OVERSAMPLING_16;
 227:main.c        **** huart4.Init.OneBitSampling         = UART_ONE_BIT_SAMPLE_DISABLE;
 228:main.c        **** huart4.Init.ClockPrescaler         = UART_PRESCALER_DIV1;
 229:main.c        **** huart4.AdvancedInit.AdvFeatureInit = UART_ADVFEATURE_NO_INIT;
 230:main.c        **** 
 231:main.c        **** /* Apply configuration */
 232:main.c        **** if (HAL_UART_Init(&huart4) != HAL_OK)
 233:main.c        **** 	{
 234:main.c        **** 	Error_Handler();
 235:main.c        **** 	}
 236:main.c        **** if (HAL_UARTEx_SetTxFifoThreshold(&huart4, UART_TXFIFO_THRESHOLD_1_8) != HAL_OK)
 237:main.c        **** 	{
 238:main.c        **** 	Error_Handler();
 239:main.c        **** 	}
 240:main.c        **** if (HAL_UARTEx_SetRxFifoThreshold(&huart4, UART_RXFIFO_THRESHOLD_1_8) != HAL_OK)
 241:main.c        **** 	{
 242:main.c        **** 	Error_Handler();
 243:main.c        **** 	}
 244:main.c        **** if (HAL_UARTEx_DisableFifoMode(&huart4) != HAL_OK)
 245:main.c        **** 	{
 246:main.c        **** 	Error_Handler();
 247:main.c        **** 	}
 248:main.c        **** 
 249:main.c        **** } /* XBee_UART_Init() */
 250:main.c        **** 
 251:main.c        **** 
 252:main.c        **** /*******************************************************************************
 253:main.c        **** *                                                                              *
 254:main.c        **** * PROCEDURE:                                                                   * 
 255:main.c        **** *       USB_UART_Init                                                          *
 256:main.c        **** *                                                                              *
 257:main.c        **** * DESCRIPTION:                                                                 * 
 258:main.c        **** *		Initializes the UART peripheral attached to the USB port               *
 259:main.c        **** *                                                                              *
 260:main.c        **** *******************************************************************************/
ARM GAS  /tmp/cca5PHjt.s 			page 6


 261:main.c        **** static void USB_UART_Init 
 262:main.c        **** 	(
 263:main.c        **** 	void
 264:main.c        **** 	)
 265:main.c        **** {
 266:main.c        **** 
 267:main.c        **** /* Fill configuration struct with UART settings */
 268:main.c        **** huart1.Instance                    = USART1;
 269:main.c        **** huart1.Init.BaudRate               = 9600;
 270:main.c        **** huart1.Init.WordLength             = UART_WORDLENGTH_8B;
 271:main.c        **** huart1.Init.StopBits               = UART_STOPBITS_1;
 272:main.c        **** huart1.Init.Parity                 = UART_PARITY_NONE;
 273:main.c        **** huart1.Init.Mode                   = UART_MODE_TX_RX;
 274:main.c        **** huart1.Init.HwFlowCtl              = UART_HWCONTROL_NONE;
 275:main.c        **** huart1.Init.OverSampling           = UART_OVERSAMPLING_16;
 276:main.c        **** huart1.Init.OneBitSampling         = UART_ONE_BIT_SAMPLE_DISABLE;
 277:main.c        **** huart1.Init.ClockPrescaler         = UART_PRESCALER_DIV1;
 278:main.c        **** huart1.AdvancedInit.AdvFeatureInit = UART_ADVFEATURE_NO_INIT;
 279:main.c        **** 
 280:main.c        **** /* Apply configuration */
 281:main.c        **** if (HAL_UART_Init(&huart1) != HAL_OK)
 282:main.c        **** 	{
 283:main.c        **** 	Error_Handler();
 284:main.c        **** 	}
 285:main.c        **** if (HAL_UARTEx_SetTxFifoThreshold(&huart1, UART_TXFIFO_THRESHOLD_1_8) != HAL_OK)
 286:main.c        **** 	{
 287:main.c        **** 	Error_Handler();
 288:main.c        **** 	}
 289:main.c        **** if (HAL_UARTEx_SetRxFifoThreshold(&huart1, UART_RXFIFO_THRESHOLD_1_8) != HAL_OK)
 290:main.c        **** 	{
 291:main.c        **** 	Error_Handler();
 292:main.c        **** 	}
 293:main.c        **** if (HAL_UARTEx_DisableFifoMode(&huart1) != HAL_OK)
 294:main.c        **** 	{
 295:main.c        **** 	Error_Handler();
 296:main.c        **** 	}
 297:main.c        **** 
 298:main.c        **** } /*  USB_UART_Init() */
 299:main.c        **** 
 300:main.c        **** 
 301:main.c        **** /*******************************************************************************
 302:main.c        **** *                                                                              *
 303:main.c        **** * PROCEDURE:                                                                   *
 304:main.c        **** *       GPIO_Init                                                              * 
 305:main.c        **** *                                                                              *
 306:main.c        **** * DESCRIPTION:                                                                 * 
 307:main.c        **** *       Initializes all GPIO pins and sets alternate functions                 *
 308:main.c        **** *                                                                              *
 309:main.c        **** *******************************************************************************/
 310:main.c        **** static void GPIO_Init
 311:main.c        **** 	(
 312:main.c        **** 	void
 313:main.c        **** 	)
 314:main.c        **** {
  27              		.loc 1 314 1 view -0
  28              		.cfi_startproc
  29              		@ args = 0, pretend = 0, frame = 32
ARM GAS  /tmp/cca5PHjt.s 			page 7


  30              		@ frame_needed = 0, uses_anonymous_args = 0
  31 0000 30B5     		push	{r4, r5, lr}
  32              	.LCFI0:
  33              		.cfi_def_cfa_offset 12
  34              		.cfi_offset 4, -12
  35              		.cfi_offset 5, -8
  36              		.cfi_offset 14, -4
  37 0002 89B0     		sub	sp, sp, #36
  38              	.LCFI1:
  39              		.cfi_def_cfa_offset 48
 315:main.c        **** /* GPIO Initialization Struct */
 316:main.c        **** GPIO_InitTypeDef GPIO_InitStruct = {0};
  40              		.loc 1 316 1 view .LVU1
  41              		.loc 1 316 18 is_stmt 0 view .LVU2
  42 0004 0024     		movs	r4, #0
  43 0006 0394     		str	r4, [sp, #12]
  44 0008 0494     		str	r4, [sp, #16]
  45 000a 0594     		str	r4, [sp, #20]
  46 000c 0694     		str	r4, [sp, #24]
  47 000e 0794     		str	r4, [sp, #28]
 317:main.c        **** 
 318:main.c        **** /* GPIO Ports Clock Enable */
 319:main.c        **** __HAL_RCC_GPIOH_CLK_ENABLE();
  48              		.loc 1 319 1 is_stmt 1 view .LVU3
  49              	.LBB4:
  50              		.loc 1 319 1 view .LVU4
  51              		.loc 1 319 1 view .LVU5
  52 0010 1C4B     		ldr	r3, .L3
  53 0012 D3F8E020 		ldr	r2, [r3, #224]
  54 0016 42F08002 		orr	r2, r2, #128
  55 001a C3F8E020 		str	r2, [r3, #224]
  56              		.loc 1 319 1 view .LVU6
  57 001e D3F8E020 		ldr	r2, [r3, #224]
  58 0022 02F08002 		and	r2, r2, #128
  59 0026 0092     		str	r2, [sp]
  60              		.loc 1 319 1 view .LVU7
  61 0028 009A     		ldr	r2, [sp]
  62              	.LBE4:
  63              		.loc 1 319 1 view .LVU8
 320:main.c        **** __HAL_RCC_GPIOA_CLK_ENABLE();
  64              		.loc 1 320 1 view .LVU9
  65              	.LBB5:
  66              		.loc 1 320 1 view .LVU10
  67              		.loc 1 320 1 view .LVU11
  68 002a D3F8E020 		ldr	r2, [r3, #224]
  69 002e 42F00102 		orr	r2, r2, #1
  70 0032 C3F8E020 		str	r2, [r3, #224]
  71              		.loc 1 320 1 view .LVU12
  72 0036 D3F8E020 		ldr	r2, [r3, #224]
  73 003a 02F00102 		and	r2, r2, #1
  74 003e 0192     		str	r2, [sp, #4]
  75              		.loc 1 320 1 view .LVU13
  76 0040 019A     		ldr	r2, [sp, #4]
  77              	.LBE5:
  78              		.loc 1 320 1 view .LVU14
 321:main.c        **** __HAL_RCC_GPIOE_CLK_ENABLE();
  79              		.loc 1 321 1 view .LVU15
ARM GAS  /tmp/cca5PHjt.s 			page 8


  80              	.LBB6:
  81              		.loc 1 321 1 view .LVU16
  82              		.loc 1 321 1 view .LVU17
  83 0042 D3F8E020 		ldr	r2, [r3, #224]
  84 0046 42F01002 		orr	r2, r2, #16
  85 004a C3F8E020 		str	r2, [r3, #224]
  86              		.loc 1 321 1 view .LVU18
  87 004e D3F8E030 		ldr	r3, [r3, #224]
  88 0052 03F01003 		and	r3, r3, #16
  89 0056 0293     		str	r3, [sp, #8]
  90              		.loc 1 321 1 view .LVU19
  91 0058 029B     		ldr	r3, [sp, #8]
  92              	.LBE6:
  93              		.loc 1 321 1 view .LVU20
 322:main.c        **** 
 323:main.c        **** /*--------------------------- LED MCU PINS -----------------------------------*/
 324:main.c        **** 
 325:main.c        **** /*Configure GPIO pin Output Level */
 326:main.c        **** HAL_GPIO_WritePin( STATUS_GPIO_PORT, 
  94              		.loc 1 326 1 view .LVU21
  95 005a 0B4D     		ldr	r5, .L3+4
  96 005c 2246     		mov	r2, r4
  97 005e 4FF4E051 		mov	r1, #7168
  98 0062 2846     		mov	r0, r5
  99 0064 FFF7FEFF 		bl	HAL_GPIO_WritePin
 100              	.LVL0:
 327:main.c        **** 			       STATUS_R_PIN      |
 328:main.c        **** 		           STATUS_G_PIN      |
 329:main.c        ****                    STATUS_B_PIN    , 
 330:main.c        **** 				   GPIO_PIN_RESET );
 331:main.c        **** 
 332:main.c        **** /*Configure GPIO pins : PE10 PE11 PE12 */
 333:main.c        **** GPIO_InitStruct.Pin   = STATUS_R_PIN |
 101              		.loc 1 333 1 view .LVU22
 102              		.loc 1 333 23 is_stmt 0 view .LVU23
 103 0068 4FF4E053 		mov	r3, #7168
 104 006c 0393     		str	r3, [sp, #12]
 334:main.c        ****                         STATUS_G_PIN |
 335:main.c        ****                         STATUS_B_PIN;
 336:main.c        **** GPIO_InitStruct.Mode  = GPIO_MODE_OUTPUT_OD;
 105              		.loc 1 336 1 is_stmt 1 view .LVU24
 106              		.loc 1 336 23 is_stmt 0 view .LVU25
 107 006e 1123     		movs	r3, #17
 108 0070 0493     		str	r3, [sp, #16]
 337:main.c        **** GPIO_InitStruct.Pull  = GPIO_NOPULL;
 109              		.loc 1 337 1 is_stmt 1 view .LVU26
 110              		.loc 1 337 23 is_stmt 0 view .LVU27
 111 0072 0594     		str	r4, [sp, #20]
 338:main.c        **** GPIO_InitStruct.Speed = GPIO_SPEED_FREQ_LOW;
 112              		.loc 1 338 1 is_stmt 1 view .LVU28
 113              		.loc 1 338 23 is_stmt 0 view .LVU29
 114 0074 0694     		str	r4, [sp, #24]
 339:main.c        **** HAL_GPIO_Init(GPIOE, &GPIO_InitStruct);
 115              		.loc 1 339 1 is_stmt 1 view .LVU30
 116 0076 03A9     		add	r1, sp, #12
 117 0078 2846     		mov	r0, r5
 118 007a FFF7FEFF 		bl	HAL_GPIO_Init
ARM GAS  /tmp/cca5PHjt.s 			page 9


 119              	.LVL1:
 340:main.c        **** 
 341:main.c        **** } /* GPIO_Init */
 120              		.loc 1 341 1 is_stmt 0 view .LVU31
 121 007e 09B0     		add	sp, sp, #36
 122              	.LCFI2:
 123              		.cfi_def_cfa_offset 12
 124              		@ sp needed
 125 0080 30BD     		pop	{r4, r5, pc}
 126              	.L4:
 127 0082 00BF     		.align	2
 128              	.L3:
 129 0084 00440258 		.word	1476543488
 130 0088 00100258 		.word	1476530176
 131              		.cfi_endproc
 132              	.LFE148:
 134              		.section	.text.Error_Handler,"ax",%progbits
 135              		.align	1
 136              		.global	Error_Handler
 137              		.syntax unified
 138              		.thumb
 139              		.thumb_func
 141              	Error_Handler:
 142              	.LFB149:
 342:main.c        **** 
 343:main.c        **** 
 344:main.c        **** /*******************************************************************************
 345:main.c        **** *                                                                              *
 346:main.c        **** * PROCEDURE:                                                                   *
 347:main.c        **** *       Error_Handler                                                          * 
 348:main.c        **** *                                                                              *
 349:main.c        **** * DESCRIPTION:                                                                 * 
 350:main.c        **** * 		This function is executed in case of error occurrence                  *
 351:main.c        **** *                                                                              *
 352:main.c        **** *******************************************************************************/
 353:main.c        **** void Error_Handler
 354:main.c        **** 	(
 355:main.c        **** 	void
 356:main.c        **** 	)
 357:main.c        **** {
 143              		.loc 1 357 1 is_stmt 1 view -0
 144              		.cfi_startproc
 145              		@ Volatile: function does not return.
 146              		@ args = 0, pretend = 0, frame = 0
 147              		@ frame_needed = 0, uses_anonymous_args = 0
 148 0000 08B5     		push	{r3, lr}
 149              	.LCFI3:
 150              		.cfi_def_cfa_offset 8
 151              		.cfi_offset 3, -8
 152              		.cfi_offset 14, -4
 358:main.c        **** /* User can add his own implementation to report the HAL error return state */
 359:main.c        **** __disable_irq();
 153              		.loc 1 359 1 view .LVU33
 154              	.LBB7:
 155              	.LBI7:
 156              		.file 2 "../../lib/Drivers/CMSIS/Include/cmsis_gcc.h"
   1:../../lib/Drivers/CMSIS/Include/cmsis_gcc.h **** /**************************************************************************//**
ARM GAS  /tmp/cca5PHjt.s 			page 10


   2:../../lib/Drivers/CMSIS/Include/cmsis_gcc.h ****  * @file     cmsis_gcc.h
   3:../../lib/Drivers/CMSIS/Include/cmsis_gcc.h ****  * @brief    CMSIS compiler GCC header file
   4:../../lib/Drivers/CMSIS/Include/cmsis_gcc.h ****  * @version  V5.2.0
   5:../../lib/Drivers/CMSIS/Include/cmsis_gcc.h ****  * @date     08. May 2019
   6:../../lib/Drivers/CMSIS/Include/cmsis_gcc.h ****  ******************************************************************************/
   7:../../lib/Drivers/CMSIS/Include/cmsis_gcc.h **** /*
   8:../../lib/Drivers/CMSIS/Include/cmsis_gcc.h ****  * Copyright (c) 2009-2019 Arm Limited. All rights reserved.
   9:../../lib/Drivers/CMSIS/Include/cmsis_gcc.h ****  *
  10:../../lib/Drivers/CMSIS/Include/cmsis_gcc.h ****  * SPDX-License-Identifier: Apache-2.0
  11:../../lib/Drivers/CMSIS/Include/cmsis_gcc.h ****  *
  12:../../lib/Drivers/CMSIS/Include/cmsis_gcc.h ****  * Licensed under the Apache License, Version 2.0 (the License); you may
  13:../../lib/Drivers/CMSIS/Include/cmsis_gcc.h ****  * not use this file except in compliance with the License.
  14:../../lib/Drivers/CMSIS/Include/cmsis_gcc.h ****  * You may obtain a copy of the License at
  15:../../lib/Drivers/CMSIS/Include/cmsis_gcc.h ****  *
  16:../../lib/Drivers/CMSIS/Include/cmsis_gcc.h ****  * www.apache.org/licenses/LICENSE-2.0
  17:../../lib/Drivers/CMSIS/Include/cmsis_gcc.h ****  *
  18:../../lib/Drivers/CMSIS/Include/cmsis_gcc.h ****  * Unless required by applicable law or agreed to in writing, software
  19:../../lib/Drivers/CMSIS/Include/cmsis_gcc.h ****  * distributed under the License is distributed on an AS IS BASIS, WITHOUT
  20:../../lib/Drivers/CMSIS/Include/cmsis_gcc.h ****  * WARRANTIES OR CONDITIONS OF ANY KIND, either express or implied.
  21:../../lib/Drivers/CMSIS/Include/cmsis_gcc.h ****  * See the License for the specific language governing permissions and
  22:../../lib/Drivers/CMSIS/Include/cmsis_gcc.h ****  * limitations under the License.
  23:../../lib/Drivers/CMSIS/Include/cmsis_gcc.h ****  */
  24:../../lib/Drivers/CMSIS/Include/cmsis_gcc.h **** 
  25:../../lib/Drivers/CMSIS/Include/cmsis_gcc.h **** #ifndef __CMSIS_GCC_H
  26:../../lib/Drivers/CMSIS/Include/cmsis_gcc.h **** #define __CMSIS_GCC_H
  27:../../lib/Drivers/CMSIS/Include/cmsis_gcc.h **** 
  28:../../lib/Drivers/CMSIS/Include/cmsis_gcc.h **** /* ignore some GCC warnings */
  29:../../lib/Drivers/CMSIS/Include/cmsis_gcc.h **** #pragma GCC diagnostic push
  30:../../lib/Drivers/CMSIS/Include/cmsis_gcc.h **** #pragma GCC diagnostic ignored "-Wsign-conversion"
  31:../../lib/Drivers/CMSIS/Include/cmsis_gcc.h **** #pragma GCC diagnostic ignored "-Wconversion"
  32:../../lib/Drivers/CMSIS/Include/cmsis_gcc.h **** #pragma GCC diagnostic ignored "-Wunused-parameter"
  33:../../lib/Drivers/CMSIS/Include/cmsis_gcc.h **** 
  34:../../lib/Drivers/CMSIS/Include/cmsis_gcc.h **** /* Fallback for __has_builtin */
  35:../../lib/Drivers/CMSIS/Include/cmsis_gcc.h **** #ifndef __has_builtin
  36:../../lib/Drivers/CMSIS/Include/cmsis_gcc.h ****   #define __has_builtin(x) (0)
  37:../../lib/Drivers/CMSIS/Include/cmsis_gcc.h **** #endif
  38:../../lib/Drivers/CMSIS/Include/cmsis_gcc.h **** 
  39:../../lib/Drivers/CMSIS/Include/cmsis_gcc.h **** /* CMSIS compiler specific defines */
  40:../../lib/Drivers/CMSIS/Include/cmsis_gcc.h **** #ifndef   __ASM
  41:../../lib/Drivers/CMSIS/Include/cmsis_gcc.h ****   #define __ASM                                  __asm
  42:../../lib/Drivers/CMSIS/Include/cmsis_gcc.h **** #endif
  43:../../lib/Drivers/CMSIS/Include/cmsis_gcc.h **** #ifndef   __INLINE
  44:../../lib/Drivers/CMSIS/Include/cmsis_gcc.h ****   #define __INLINE                               inline
  45:../../lib/Drivers/CMSIS/Include/cmsis_gcc.h **** #endif
  46:../../lib/Drivers/CMSIS/Include/cmsis_gcc.h **** #ifndef   __STATIC_INLINE
  47:../../lib/Drivers/CMSIS/Include/cmsis_gcc.h ****   #define __STATIC_INLINE                        static inline
  48:../../lib/Drivers/CMSIS/Include/cmsis_gcc.h **** #endif
  49:../../lib/Drivers/CMSIS/Include/cmsis_gcc.h **** #ifndef   __STATIC_FORCEINLINE                 
  50:../../lib/Drivers/CMSIS/Include/cmsis_gcc.h ****   #define __STATIC_FORCEINLINE                   __attribute__((always_inline)) static inline
  51:../../lib/Drivers/CMSIS/Include/cmsis_gcc.h **** #endif                                           
  52:../../lib/Drivers/CMSIS/Include/cmsis_gcc.h **** #ifndef   __NO_RETURN
  53:../../lib/Drivers/CMSIS/Include/cmsis_gcc.h ****   #define __NO_RETURN                            __attribute__((__noreturn__))
  54:../../lib/Drivers/CMSIS/Include/cmsis_gcc.h **** #endif
  55:../../lib/Drivers/CMSIS/Include/cmsis_gcc.h **** #ifndef   __USED
  56:../../lib/Drivers/CMSIS/Include/cmsis_gcc.h ****   #define __USED                                 __attribute__((used))
  57:../../lib/Drivers/CMSIS/Include/cmsis_gcc.h **** #endif
  58:../../lib/Drivers/CMSIS/Include/cmsis_gcc.h **** #ifndef   __WEAK
ARM GAS  /tmp/cca5PHjt.s 			page 11


  59:../../lib/Drivers/CMSIS/Include/cmsis_gcc.h ****   #define __WEAK                                 __attribute__((weak))
  60:../../lib/Drivers/CMSIS/Include/cmsis_gcc.h **** #endif
  61:../../lib/Drivers/CMSIS/Include/cmsis_gcc.h **** #ifndef   __PACKED
  62:../../lib/Drivers/CMSIS/Include/cmsis_gcc.h ****   #define __PACKED                               __attribute__((packed, aligned(1)))
  63:../../lib/Drivers/CMSIS/Include/cmsis_gcc.h **** #endif
  64:../../lib/Drivers/CMSIS/Include/cmsis_gcc.h **** #ifndef   __PACKED_STRUCT
  65:../../lib/Drivers/CMSIS/Include/cmsis_gcc.h ****   #define __PACKED_STRUCT                        struct __attribute__((packed, aligned(1)))
  66:../../lib/Drivers/CMSIS/Include/cmsis_gcc.h **** #endif
  67:../../lib/Drivers/CMSIS/Include/cmsis_gcc.h **** #ifndef   __PACKED_UNION
  68:../../lib/Drivers/CMSIS/Include/cmsis_gcc.h ****   #define __PACKED_UNION                         union __attribute__((packed, aligned(1)))
  69:../../lib/Drivers/CMSIS/Include/cmsis_gcc.h **** #endif
  70:../../lib/Drivers/CMSIS/Include/cmsis_gcc.h **** #ifndef   __UNALIGNED_UINT32        /* deprecated */
  71:../../lib/Drivers/CMSIS/Include/cmsis_gcc.h ****   #pragma GCC diagnostic push
  72:../../lib/Drivers/CMSIS/Include/cmsis_gcc.h ****   #pragma GCC diagnostic ignored "-Wpacked"
  73:../../lib/Drivers/CMSIS/Include/cmsis_gcc.h ****   #pragma GCC diagnostic ignored "-Wattributes"
  74:../../lib/Drivers/CMSIS/Include/cmsis_gcc.h ****   struct __attribute__((packed)) T_UINT32 { uint32_t v; };
  75:../../lib/Drivers/CMSIS/Include/cmsis_gcc.h ****   #pragma GCC diagnostic pop
  76:../../lib/Drivers/CMSIS/Include/cmsis_gcc.h ****   #define __UNALIGNED_UINT32(x)                  (((struct T_UINT32 *)(x))->v)
  77:../../lib/Drivers/CMSIS/Include/cmsis_gcc.h **** #endif
  78:../../lib/Drivers/CMSIS/Include/cmsis_gcc.h **** #ifndef   __UNALIGNED_UINT16_WRITE
  79:../../lib/Drivers/CMSIS/Include/cmsis_gcc.h ****   #pragma GCC diagnostic push
  80:../../lib/Drivers/CMSIS/Include/cmsis_gcc.h ****   #pragma GCC diagnostic ignored "-Wpacked"
  81:../../lib/Drivers/CMSIS/Include/cmsis_gcc.h ****   #pragma GCC diagnostic ignored "-Wattributes"
  82:../../lib/Drivers/CMSIS/Include/cmsis_gcc.h ****   __PACKED_STRUCT T_UINT16_WRITE { uint16_t v; };
  83:../../lib/Drivers/CMSIS/Include/cmsis_gcc.h ****   #pragma GCC diagnostic pop
  84:../../lib/Drivers/CMSIS/Include/cmsis_gcc.h ****   #define __UNALIGNED_UINT16_WRITE(addr, val)    (void)((((struct T_UINT16_WRITE *)(void *)(addr))-
  85:../../lib/Drivers/CMSIS/Include/cmsis_gcc.h **** #endif
  86:../../lib/Drivers/CMSIS/Include/cmsis_gcc.h **** #ifndef   __UNALIGNED_UINT16_READ
  87:../../lib/Drivers/CMSIS/Include/cmsis_gcc.h ****   #pragma GCC diagnostic push
  88:../../lib/Drivers/CMSIS/Include/cmsis_gcc.h ****   #pragma GCC diagnostic ignored "-Wpacked"
  89:../../lib/Drivers/CMSIS/Include/cmsis_gcc.h ****   #pragma GCC diagnostic ignored "-Wattributes"
  90:../../lib/Drivers/CMSIS/Include/cmsis_gcc.h ****   __PACKED_STRUCT T_UINT16_READ { uint16_t v; };
  91:../../lib/Drivers/CMSIS/Include/cmsis_gcc.h ****   #pragma GCC diagnostic pop
  92:../../lib/Drivers/CMSIS/Include/cmsis_gcc.h ****   #define __UNALIGNED_UINT16_READ(addr)          (((const struct T_UINT16_READ *)(const void *)(add
  93:../../lib/Drivers/CMSIS/Include/cmsis_gcc.h **** #endif
  94:../../lib/Drivers/CMSIS/Include/cmsis_gcc.h **** #ifndef   __UNALIGNED_UINT32_WRITE
  95:../../lib/Drivers/CMSIS/Include/cmsis_gcc.h ****   #pragma GCC diagnostic push
  96:../../lib/Drivers/CMSIS/Include/cmsis_gcc.h ****   #pragma GCC diagnostic ignored "-Wpacked"
  97:../../lib/Drivers/CMSIS/Include/cmsis_gcc.h ****   #pragma GCC diagnostic ignored "-Wattributes"
  98:../../lib/Drivers/CMSIS/Include/cmsis_gcc.h ****   __PACKED_STRUCT T_UINT32_WRITE { uint32_t v; };
  99:../../lib/Drivers/CMSIS/Include/cmsis_gcc.h ****   #pragma GCC diagnostic pop
 100:../../lib/Drivers/CMSIS/Include/cmsis_gcc.h ****   #define __UNALIGNED_UINT32_WRITE(addr, val)    (void)((((struct T_UINT32_WRITE *)(void *)(addr))-
 101:../../lib/Drivers/CMSIS/Include/cmsis_gcc.h **** #endif
 102:../../lib/Drivers/CMSIS/Include/cmsis_gcc.h **** #ifndef   __UNALIGNED_UINT32_READ
 103:../../lib/Drivers/CMSIS/Include/cmsis_gcc.h ****   #pragma GCC diagnostic push
 104:../../lib/Drivers/CMSIS/Include/cmsis_gcc.h ****   #pragma GCC diagnostic ignored "-Wpacked"
 105:../../lib/Drivers/CMSIS/Include/cmsis_gcc.h ****   #pragma GCC diagnostic ignored "-Wattributes"
 106:../../lib/Drivers/CMSIS/Include/cmsis_gcc.h ****   __PACKED_STRUCT T_UINT32_READ { uint32_t v; };
 107:../../lib/Drivers/CMSIS/Include/cmsis_gcc.h ****   #pragma GCC diagnostic pop
 108:../../lib/Drivers/CMSIS/Include/cmsis_gcc.h ****   #define __UNALIGNED_UINT32_READ(addr)          (((const struct T_UINT32_READ *)(const void *)(add
 109:../../lib/Drivers/CMSIS/Include/cmsis_gcc.h **** #endif
 110:../../lib/Drivers/CMSIS/Include/cmsis_gcc.h **** #ifndef   __ALIGNED
 111:../../lib/Drivers/CMSIS/Include/cmsis_gcc.h ****   #define __ALIGNED(x)                           __attribute__((aligned(x)))
 112:../../lib/Drivers/CMSIS/Include/cmsis_gcc.h **** #endif
 113:../../lib/Drivers/CMSIS/Include/cmsis_gcc.h **** #ifndef   __RESTRICT
 114:../../lib/Drivers/CMSIS/Include/cmsis_gcc.h ****   #define __RESTRICT                             __restrict
 115:../../lib/Drivers/CMSIS/Include/cmsis_gcc.h **** #endif
ARM GAS  /tmp/cca5PHjt.s 			page 12


 116:../../lib/Drivers/CMSIS/Include/cmsis_gcc.h **** #ifndef   __COMPILER_BARRIER
 117:../../lib/Drivers/CMSIS/Include/cmsis_gcc.h ****   #define __COMPILER_BARRIER()                   __ASM volatile("":::"memory")
 118:../../lib/Drivers/CMSIS/Include/cmsis_gcc.h **** #endif
 119:../../lib/Drivers/CMSIS/Include/cmsis_gcc.h **** 
 120:../../lib/Drivers/CMSIS/Include/cmsis_gcc.h **** /* #########################  Startup and Lowlevel Init  ######################## */
 121:../../lib/Drivers/CMSIS/Include/cmsis_gcc.h **** 
 122:../../lib/Drivers/CMSIS/Include/cmsis_gcc.h **** #ifndef __PROGRAM_START
 123:../../lib/Drivers/CMSIS/Include/cmsis_gcc.h **** 
 124:../../lib/Drivers/CMSIS/Include/cmsis_gcc.h **** /**
 125:../../lib/Drivers/CMSIS/Include/cmsis_gcc.h ****   \brief   Initializes data and bss sections
 126:../../lib/Drivers/CMSIS/Include/cmsis_gcc.h ****   \details This default implementations initialized all data and additional bss
 127:../../lib/Drivers/CMSIS/Include/cmsis_gcc.h ****            sections relying on .copy.table and .zero.table specified properly
 128:../../lib/Drivers/CMSIS/Include/cmsis_gcc.h ****            in the used linker script.
 129:../../lib/Drivers/CMSIS/Include/cmsis_gcc.h ****   
 130:../../lib/Drivers/CMSIS/Include/cmsis_gcc.h ****  */
 131:../../lib/Drivers/CMSIS/Include/cmsis_gcc.h **** __STATIC_FORCEINLINE __NO_RETURN void __cmsis_start(void)
 132:../../lib/Drivers/CMSIS/Include/cmsis_gcc.h **** {
 133:../../lib/Drivers/CMSIS/Include/cmsis_gcc.h ****   extern void _start(void) __NO_RETURN;
 134:../../lib/Drivers/CMSIS/Include/cmsis_gcc.h ****   
 135:../../lib/Drivers/CMSIS/Include/cmsis_gcc.h ****   typedef struct {
 136:../../lib/Drivers/CMSIS/Include/cmsis_gcc.h ****     uint32_t const* src;
 137:../../lib/Drivers/CMSIS/Include/cmsis_gcc.h ****     uint32_t* dest;
 138:../../lib/Drivers/CMSIS/Include/cmsis_gcc.h ****     uint32_t  wlen;
 139:../../lib/Drivers/CMSIS/Include/cmsis_gcc.h ****   } __copy_table_t;
 140:../../lib/Drivers/CMSIS/Include/cmsis_gcc.h ****   
 141:../../lib/Drivers/CMSIS/Include/cmsis_gcc.h ****   typedef struct {
 142:../../lib/Drivers/CMSIS/Include/cmsis_gcc.h ****     uint32_t* dest;
 143:../../lib/Drivers/CMSIS/Include/cmsis_gcc.h ****     uint32_t  wlen;
 144:../../lib/Drivers/CMSIS/Include/cmsis_gcc.h ****   } __zero_table_t;
 145:../../lib/Drivers/CMSIS/Include/cmsis_gcc.h ****   
 146:../../lib/Drivers/CMSIS/Include/cmsis_gcc.h ****   extern const __copy_table_t __copy_table_start__;
 147:../../lib/Drivers/CMSIS/Include/cmsis_gcc.h ****   extern const __copy_table_t __copy_table_end__;
 148:../../lib/Drivers/CMSIS/Include/cmsis_gcc.h ****   extern const __zero_table_t __zero_table_start__;
 149:../../lib/Drivers/CMSIS/Include/cmsis_gcc.h ****   extern const __zero_table_t __zero_table_end__;
 150:../../lib/Drivers/CMSIS/Include/cmsis_gcc.h **** 
 151:../../lib/Drivers/CMSIS/Include/cmsis_gcc.h ****   for (__copy_table_t const* pTable = &__copy_table_start__; pTable < &__copy_table_end__; ++pTable
 152:../../lib/Drivers/CMSIS/Include/cmsis_gcc.h ****     for(uint32_t i=0u; i<pTable->wlen; ++i) {
 153:../../lib/Drivers/CMSIS/Include/cmsis_gcc.h ****       pTable->dest[i] = pTable->src[i];
 154:../../lib/Drivers/CMSIS/Include/cmsis_gcc.h ****     }
 155:../../lib/Drivers/CMSIS/Include/cmsis_gcc.h ****   }
 156:../../lib/Drivers/CMSIS/Include/cmsis_gcc.h ****  
 157:../../lib/Drivers/CMSIS/Include/cmsis_gcc.h ****   for (__zero_table_t const* pTable = &__zero_table_start__; pTable < &__zero_table_end__; ++pTable
 158:../../lib/Drivers/CMSIS/Include/cmsis_gcc.h ****     for(uint32_t i=0u; i<pTable->wlen; ++i) {
 159:../../lib/Drivers/CMSIS/Include/cmsis_gcc.h ****       pTable->dest[i] = 0u;
 160:../../lib/Drivers/CMSIS/Include/cmsis_gcc.h ****     }
 161:../../lib/Drivers/CMSIS/Include/cmsis_gcc.h ****   }
 162:../../lib/Drivers/CMSIS/Include/cmsis_gcc.h ****  
 163:../../lib/Drivers/CMSIS/Include/cmsis_gcc.h ****   _start();
 164:../../lib/Drivers/CMSIS/Include/cmsis_gcc.h **** }
 165:../../lib/Drivers/CMSIS/Include/cmsis_gcc.h ****   
 166:../../lib/Drivers/CMSIS/Include/cmsis_gcc.h **** #define __PROGRAM_START           __cmsis_start
 167:../../lib/Drivers/CMSIS/Include/cmsis_gcc.h **** #endif
 168:../../lib/Drivers/CMSIS/Include/cmsis_gcc.h **** 
 169:../../lib/Drivers/CMSIS/Include/cmsis_gcc.h **** #ifndef __INITIAL_SP
 170:../../lib/Drivers/CMSIS/Include/cmsis_gcc.h **** #define __INITIAL_SP              __StackTop
 171:../../lib/Drivers/CMSIS/Include/cmsis_gcc.h **** #endif
 172:../../lib/Drivers/CMSIS/Include/cmsis_gcc.h **** 
ARM GAS  /tmp/cca5PHjt.s 			page 13


 173:../../lib/Drivers/CMSIS/Include/cmsis_gcc.h **** #ifndef __STACK_LIMIT
 174:../../lib/Drivers/CMSIS/Include/cmsis_gcc.h **** #define __STACK_LIMIT             __StackLimit
 175:../../lib/Drivers/CMSIS/Include/cmsis_gcc.h **** #endif
 176:../../lib/Drivers/CMSIS/Include/cmsis_gcc.h **** 
 177:../../lib/Drivers/CMSIS/Include/cmsis_gcc.h **** #ifndef __VECTOR_TABLE
 178:../../lib/Drivers/CMSIS/Include/cmsis_gcc.h **** #define __VECTOR_TABLE            __Vectors
 179:../../lib/Drivers/CMSIS/Include/cmsis_gcc.h **** #endif
 180:../../lib/Drivers/CMSIS/Include/cmsis_gcc.h **** 
 181:../../lib/Drivers/CMSIS/Include/cmsis_gcc.h **** #ifndef __VECTOR_TABLE_ATTRIBUTE
 182:../../lib/Drivers/CMSIS/Include/cmsis_gcc.h **** #define __VECTOR_TABLE_ATTRIBUTE  __attribute((used, section(".vectors")))
 183:../../lib/Drivers/CMSIS/Include/cmsis_gcc.h **** #endif
 184:../../lib/Drivers/CMSIS/Include/cmsis_gcc.h **** 
 185:../../lib/Drivers/CMSIS/Include/cmsis_gcc.h **** /* ###########################  Core Function Access  ########################### */
 186:../../lib/Drivers/CMSIS/Include/cmsis_gcc.h **** /** \ingroup  CMSIS_Core_FunctionInterface
 187:../../lib/Drivers/CMSIS/Include/cmsis_gcc.h ****     \defgroup CMSIS_Core_RegAccFunctions CMSIS Core Register Access Functions
 188:../../lib/Drivers/CMSIS/Include/cmsis_gcc.h ****   @{
 189:../../lib/Drivers/CMSIS/Include/cmsis_gcc.h ****  */
 190:../../lib/Drivers/CMSIS/Include/cmsis_gcc.h **** 
 191:../../lib/Drivers/CMSIS/Include/cmsis_gcc.h **** /**
 192:../../lib/Drivers/CMSIS/Include/cmsis_gcc.h ****   \brief   Enable IRQ Interrupts
 193:../../lib/Drivers/CMSIS/Include/cmsis_gcc.h ****   \details Enables IRQ interrupts by clearing the I-bit in the CPSR.
 194:../../lib/Drivers/CMSIS/Include/cmsis_gcc.h ****            Can only be executed in Privileged modes.
 195:../../lib/Drivers/CMSIS/Include/cmsis_gcc.h ****  */
 196:../../lib/Drivers/CMSIS/Include/cmsis_gcc.h **** __STATIC_FORCEINLINE void __enable_irq(void)
 197:../../lib/Drivers/CMSIS/Include/cmsis_gcc.h **** {
 198:../../lib/Drivers/CMSIS/Include/cmsis_gcc.h ****   __ASM volatile ("cpsie i" : : : "memory");
 199:../../lib/Drivers/CMSIS/Include/cmsis_gcc.h **** }
 200:../../lib/Drivers/CMSIS/Include/cmsis_gcc.h **** 
 201:../../lib/Drivers/CMSIS/Include/cmsis_gcc.h **** 
 202:../../lib/Drivers/CMSIS/Include/cmsis_gcc.h **** /**
 203:../../lib/Drivers/CMSIS/Include/cmsis_gcc.h ****   \brief   Disable IRQ Interrupts
 204:../../lib/Drivers/CMSIS/Include/cmsis_gcc.h ****   \details Disables IRQ interrupts by setting the I-bit in the CPSR.
 205:../../lib/Drivers/CMSIS/Include/cmsis_gcc.h ****            Can only be executed in Privileged modes.
 206:../../lib/Drivers/CMSIS/Include/cmsis_gcc.h ****  */
 207:../../lib/Drivers/CMSIS/Include/cmsis_gcc.h **** __STATIC_FORCEINLINE void __disable_irq(void)
 157              		.loc 2 207 27 view .LVU34
 158              	.LBB8:
 208:../../lib/Drivers/CMSIS/Include/cmsis_gcc.h **** {
 209:../../lib/Drivers/CMSIS/Include/cmsis_gcc.h ****   __ASM volatile ("cpsid i" : : : "memory");
 159              		.loc 2 209 3 view .LVU35
 160              		.syntax unified
 161              	@ 209 "../../lib/Drivers/CMSIS/Include/cmsis_gcc.h" 1
 162 0002 72B6     		cpsid i
 163              	@ 0 "" 2
 164              		.thumb
 165              		.syntax unified
 166              	.LBE8:
 167              	.LBE7:
 360:main.c        **** led_error_assert();
 168              		.loc 1 360 1 view .LVU36
 169 0004 FFF7FEFF 		bl	led_error_assert
 170              	.LVL2:
 171              	.L6:
 361:main.c        **** 
 362:main.c        **** while (1)
 172              		.loc 1 362 1 discriminator 1 view .LVU37
 363:main.c        **** 	{
ARM GAS  /tmp/cca5PHjt.s 			page 14


 364:main.c        **** 	/* Application Hangs when a failure occurs */
 365:main.c        **** 	}
 173              		.loc 1 365 2 discriminator 1 view .LVU38
 362:main.c        **** 	{
 174              		.loc 1 362 7 discriminator 1 view .LVU39
 175 0008 FEE7     		b	.L6
 176              		.cfi_endproc
 177              	.LFE149:
 179              		.section	.text.XBee_UART_Init,"ax",%progbits
 180              		.align	1
 181              		.syntax unified
 182              		.thumb
 183              		.thumb_func
 185              	XBee_UART_Init:
 186              	.LFB146:
 217:main.c        **** /* Fill configuration struct with UART settings */
 187              		.loc 1 217 1 view -0
 188              		.cfi_startproc
 189              		@ args = 0, pretend = 0, frame = 0
 190              		@ frame_needed = 0, uses_anonymous_args = 0
 191 0000 08B5     		push	{r3, lr}
 192              	.LCFI4:
 193              		.cfi_def_cfa_offset 8
 194              		.cfi_offset 3, -8
 195              		.cfi_offset 14, -4
 219:main.c        **** huart4.Init.BaudRate               = 9600;
 196              		.loc 1 219 1 view .LVU41
 219:main.c        **** huart4.Init.BaudRate               = 9600;
 197              		.loc 1 219 36 is_stmt 0 view .LVU42
 198 0002 1548     		ldr	r0, .L18
 199 0004 154B     		ldr	r3, .L18+4
 200 0006 0360     		str	r3, [r0]
 220:main.c        **** huart4.Init.WordLength             = UART_WORDLENGTH_8B;
 201              		.loc 1 220 1 is_stmt 1 view .LVU43
 220:main.c        **** huart4.Init.WordLength             = UART_WORDLENGTH_8B;
 202              		.loc 1 220 36 is_stmt 0 view .LVU44
 203 0008 4FF41653 		mov	r3, #9600
 204 000c 4360     		str	r3, [r0, #4]
 221:main.c        **** huart4.Init.StopBits               = UART_STOPBITS_1;
 205              		.loc 1 221 1 is_stmt 1 view .LVU45
 221:main.c        **** huart4.Init.StopBits               = UART_STOPBITS_1;
 206              		.loc 1 221 36 is_stmt 0 view .LVU46
 207 000e 0023     		movs	r3, #0
 208 0010 8360     		str	r3, [r0, #8]
 222:main.c        **** huart4.Init.Parity                 = UART_PARITY_NONE;
 209              		.loc 1 222 1 is_stmt 1 view .LVU47
 222:main.c        **** huart4.Init.Parity                 = UART_PARITY_NONE;
 210              		.loc 1 222 36 is_stmt 0 view .LVU48
 211 0012 C360     		str	r3, [r0, #12]
 223:main.c        **** huart4.Init.Mode                   = UART_MODE_TX_RX;
 212              		.loc 1 223 1 is_stmt 1 view .LVU49
 223:main.c        **** huart4.Init.Mode                   = UART_MODE_TX_RX;
 213              		.loc 1 223 36 is_stmt 0 view .LVU50
 214 0014 0361     		str	r3, [r0, #16]
 224:main.c        **** huart4.Init.HwFlowCtl              = UART_HWCONTROL_NONE;
 215              		.loc 1 224 1 is_stmt 1 view .LVU51
 224:main.c        **** huart4.Init.HwFlowCtl              = UART_HWCONTROL_NONE;
ARM GAS  /tmp/cca5PHjt.s 			page 15


 216              		.loc 1 224 36 is_stmt 0 view .LVU52
 217 0016 0C22     		movs	r2, #12
 218 0018 4261     		str	r2, [r0, #20]
 225:main.c        **** huart4.Init.OverSampling           = UART_OVERSAMPLING_16;
 219              		.loc 1 225 1 is_stmt 1 view .LVU53
 225:main.c        **** huart4.Init.OverSampling           = UART_OVERSAMPLING_16;
 220              		.loc 1 225 36 is_stmt 0 view .LVU54
 221 001a 8361     		str	r3, [r0, #24]
 226:main.c        **** huart4.Init.OneBitSampling         = UART_ONE_BIT_SAMPLE_DISABLE;
 222              		.loc 1 226 1 is_stmt 1 view .LVU55
 226:main.c        **** huart4.Init.OneBitSampling         = UART_ONE_BIT_SAMPLE_DISABLE;
 223              		.loc 1 226 36 is_stmt 0 view .LVU56
 224 001c C361     		str	r3, [r0, #28]
 227:main.c        **** huart4.Init.ClockPrescaler         = UART_PRESCALER_DIV1;
 225              		.loc 1 227 1 is_stmt 1 view .LVU57
 227:main.c        **** huart4.Init.ClockPrescaler         = UART_PRESCALER_DIV1;
 226              		.loc 1 227 36 is_stmt 0 view .LVU58
 227 001e 0362     		str	r3, [r0, #32]
 228:main.c        **** huart4.AdvancedInit.AdvFeatureInit = UART_ADVFEATURE_NO_INIT;
 228              		.loc 1 228 1 is_stmt 1 view .LVU59
 228:main.c        **** huart4.AdvancedInit.AdvFeatureInit = UART_ADVFEATURE_NO_INIT;
 229              		.loc 1 228 36 is_stmt 0 view .LVU60
 230 0020 4362     		str	r3, [r0, #36]
 229:main.c        **** 
 231              		.loc 1 229 1 is_stmt 1 view .LVU61
 229:main.c        **** 
 232              		.loc 1 229 36 is_stmt 0 view .LVU62
 233 0022 8362     		str	r3, [r0, #40]
 232:main.c        **** 	{
 234              		.loc 1 232 1 is_stmt 1 view .LVU63
 232:main.c        **** 	{
 235              		.loc 1 232 5 is_stmt 0 view .LVU64
 236 0024 FFF7FEFF 		bl	HAL_UART_Init
 237              	.LVL3:
 232:main.c        **** 	{
 238              		.loc 1 232 4 view .LVU65
 239 0028 70B9     		cbnz	r0, .L14
 236:main.c        **** 	{
 240              		.loc 1 236 1 is_stmt 1 view .LVU66
 236:main.c        **** 	{
 241              		.loc 1 236 5 is_stmt 0 view .LVU67
 242 002a 0021     		movs	r1, #0
 243 002c 0A48     		ldr	r0, .L18
 244 002e FFF7FEFF 		bl	HAL_UARTEx_SetTxFifoThreshold
 245              	.LVL4:
 236:main.c        **** 	{
 246              		.loc 1 236 4 view .LVU68
 247 0032 58B9     		cbnz	r0, .L15
 240:main.c        **** 	{
 248              		.loc 1 240 1 is_stmt 1 view .LVU69
 240:main.c        **** 	{
 249              		.loc 1 240 5 is_stmt 0 view .LVU70
 250 0034 0021     		movs	r1, #0
 251 0036 0848     		ldr	r0, .L18
 252 0038 FFF7FEFF 		bl	HAL_UARTEx_SetRxFifoThreshold
 253              	.LVL5:
 240:main.c        **** 	{
ARM GAS  /tmp/cca5PHjt.s 			page 16


 254              		.loc 1 240 4 view .LVU71
 255 003c 40B9     		cbnz	r0, .L16
 244:main.c        **** 	{
 256              		.loc 1 244 1 is_stmt 1 view .LVU72
 244:main.c        **** 	{
 257              		.loc 1 244 5 is_stmt 0 view .LVU73
 258 003e 0648     		ldr	r0, .L18
 259 0040 FFF7FEFF 		bl	HAL_UARTEx_DisableFifoMode
 260              	.LVL6:
 244:main.c        **** 	{
 261              		.loc 1 244 4 view .LVU74
 262 0044 30B9     		cbnz	r0, .L17
 249:main.c        **** 
 263              		.loc 1 249 1 view .LVU75
 264 0046 08BD     		pop	{r3, pc}
 265              	.L14:
 234:main.c        **** 	}
 266              		.loc 1 234 2 is_stmt 1 view .LVU76
 267 0048 FFF7FEFF 		bl	Error_Handler
 268              	.LVL7:
 269              	.L15:
 238:main.c        **** 	}
 270              		.loc 1 238 2 view .LVU77
 271 004c FFF7FEFF 		bl	Error_Handler
 272              	.LVL8:
 273              	.L16:
 242:main.c        **** 	}
 274              		.loc 1 242 2 view .LVU78
 275 0050 FFF7FEFF 		bl	Error_Handler
 276              	.LVL9:
 277              	.L17:
 246:main.c        **** 	}
 278              		.loc 1 246 2 view .LVU79
 279 0054 FFF7FEFF 		bl	Error_Handler
 280              	.LVL10:
 281              	.L19:
 282              		.align	2
 283              	.L18:
 284 0058 00000000 		.word	huart4
 285 005c 004C0040 		.word	1073761280
 286              		.cfi_endproc
 287              	.LFE146:
 289              		.section	.text.USB_UART_Init,"ax",%progbits
 290              		.align	1
 291              		.syntax unified
 292              		.thumb
 293              		.thumb_func
 295              	USB_UART_Init:
 296              	.LFB147:
 265:main.c        **** 
 297              		.loc 1 265 1 view -0
 298              		.cfi_startproc
 299              		@ args = 0, pretend = 0, frame = 0
 300              		@ frame_needed = 0, uses_anonymous_args = 0
 301 0000 08B5     		push	{r3, lr}
 302              	.LCFI5:
 303              		.cfi_def_cfa_offset 8
ARM GAS  /tmp/cca5PHjt.s 			page 17


 304              		.cfi_offset 3, -8
 305              		.cfi_offset 14, -4
 268:main.c        **** huart1.Init.BaudRate               = 9600;
 306              		.loc 1 268 1 view .LVU81
 268:main.c        **** huart1.Init.BaudRate               = 9600;
 307              		.loc 1 268 36 is_stmt 0 view .LVU82
 308 0002 1548     		ldr	r0, .L30
 309 0004 154B     		ldr	r3, .L30+4
 310 0006 0360     		str	r3, [r0]
 269:main.c        **** huart1.Init.WordLength             = UART_WORDLENGTH_8B;
 311              		.loc 1 269 1 is_stmt 1 view .LVU83
 269:main.c        **** huart1.Init.WordLength             = UART_WORDLENGTH_8B;
 312              		.loc 1 269 36 is_stmt 0 view .LVU84
 313 0008 4FF41653 		mov	r3, #9600
 314 000c 4360     		str	r3, [r0, #4]
 270:main.c        **** huart1.Init.StopBits               = UART_STOPBITS_1;
 315              		.loc 1 270 1 is_stmt 1 view .LVU85
 270:main.c        **** huart1.Init.StopBits               = UART_STOPBITS_1;
 316              		.loc 1 270 36 is_stmt 0 view .LVU86
 317 000e 0023     		movs	r3, #0
 318 0010 8360     		str	r3, [r0, #8]
 271:main.c        **** huart1.Init.Parity                 = UART_PARITY_NONE;
 319              		.loc 1 271 1 is_stmt 1 view .LVU87
 271:main.c        **** huart1.Init.Parity                 = UART_PARITY_NONE;
 320              		.loc 1 271 36 is_stmt 0 view .LVU88
 321 0012 C360     		str	r3, [r0, #12]
 272:main.c        **** huart1.Init.Mode                   = UART_MODE_TX_RX;
 322              		.loc 1 272 1 is_stmt 1 view .LVU89
 272:main.c        **** huart1.Init.Mode                   = UART_MODE_TX_RX;
 323              		.loc 1 272 36 is_stmt 0 view .LVU90
 324 0014 0361     		str	r3, [r0, #16]
 273:main.c        **** huart1.Init.HwFlowCtl              = UART_HWCONTROL_NONE;
 325              		.loc 1 273 1 is_stmt 1 view .LVU91
 273:main.c        **** huart1.Init.HwFlowCtl              = UART_HWCONTROL_NONE;
 326              		.loc 1 273 36 is_stmt 0 view .LVU92
 327 0016 0C22     		movs	r2, #12
 328 0018 4261     		str	r2, [r0, #20]
 274:main.c        **** huart1.Init.OverSampling           = UART_OVERSAMPLING_16;
 329              		.loc 1 274 1 is_stmt 1 view .LVU93
 274:main.c        **** huart1.Init.OverSampling           = UART_OVERSAMPLING_16;
 330              		.loc 1 274 36 is_stmt 0 view .LVU94
 331 001a 8361     		str	r3, [r0, #24]
 275:main.c        **** huart1.Init.OneBitSampling         = UART_ONE_BIT_SAMPLE_DISABLE;
 332              		.loc 1 275 1 is_stmt 1 view .LVU95
 275:main.c        **** huart1.Init.OneBitSampling         = UART_ONE_BIT_SAMPLE_DISABLE;
 333              		.loc 1 275 36 is_stmt 0 view .LVU96
 334 001c C361     		str	r3, [r0, #28]
 276:main.c        **** huart1.Init.ClockPrescaler         = UART_PRESCALER_DIV1;
 335              		.loc 1 276 1 is_stmt 1 view .LVU97
 276:main.c        **** huart1.Init.ClockPrescaler         = UART_PRESCALER_DIV1;
 336              		.loc 1 276 36 is_stmt 0 view .LVU98
 337 001e 0362     		str	r3, [r0, #32]
 277:main.c        **** huart1.AdvancedInit.AdvFeatureInit = UART_ADVFEATURE_NO_INIT;
 338              		.loc 1 277 1 is_stmt 1 view .LVU99
 277:main.c        **** huart1.AdvancedInit.AdvFeatureInit = UART_ADVFEATURE_NO_INIT;
 339              		.loc 1 277 36 is_stmt 0 view .LVU100
 340 0020 4362     		str	r3, [r0, #36]
ARM GAS  /tmp/cca5PHjt.s 			page 18


 278:main.c        **** 
 341              		.loc 1 278 1 is_stmt 1 view .LVU101
 278:main.c        **** 
 342              		.loc 1 278 36 is_stmt 0 view .LVU102
 343 0022 8362     		str	r3, [r0, #40]
 281:main.c        **** 	{
 344              		.loc 1 281 1 is_stmt 1 view .LVU103
 281:main.c        **** 	{
 345              		.loc 1 281 5 is_stmt 0 view .LVU104
 346 0024 FFF7FEFF 		bl	HAL_UART_Init
 347              	.LVL11:
 281:main.c        **** 	{
 348              		.loc 1 281 4 view .LVU105
 349 0028 70B9     		cbnz	r0, .L26
 285:main.c        **** 	{
 350              		.loc 1 285 1 is_stmt 1 view .LVU106
 285:main.c        **** 	{
 351              		.loc 1 285 5 is_stmt 0 view .LVU107
 352 002a 0021     		movs	r1, #0
 353 002c 0A48     		ldr	r0, .L30
 354 002e FFF7FEFF 		bl	HAL_UARTEx_SetTxFifoThreshold
 355              	.LVL12:
 285:main.c        **** 	{
 356              		.loc 1 285 4 view .LVU108
 357 0032 58B9     		cbnz	r0, .L27
 289:main.c        **** 	{
 358              		.loc 1 289 1 is_stmt 1 view .LVU109
 289:main.c        **** 	{
 359              		.loc 1 289 5 is_stmt 0 view .LVU110
 360 0034 0021     		movs	r1, #0
 361 0036 0848     		ldr	r0, .L30
 362 0038 FFF7FEFF 		bl	HAL_UARTEx_SetRxFifoThreshold
 363              	.LVL13:
 289:main.c        **** 	{
 364              		.loc 1 289 4 view .LVU111
 365 003c 40B9     		cbnz	r0, .L28
 293:main.c        **** 	{
 366              		.loc 1 293 1 is_stmt 1 view .LVU112
 293:main.c        **** 	{
 367              		.loc 1 293 5 is_stmt 0 view .LVU113
 368 003e 0648     		ldr	r0, .L30
 369 0040 FFF7FEFF 		bl	HAL_UARTEx_DisableFifoMode
 370              	.LVL14:
 293:main.c        **** 	{
 371              		.loc 1 293 4 view .LVU114
 372 0044 30B9     		cbnz	r0, .L29
 298:main.c        **** 
 373              		.loc 1 298 1 view .LVU115
 374 0046 08BD     		pop	{r3, pc}
 375              	.L26:
 283:main.c        **** 	}
 376              		.loc 1 283 2 is_stmt 1 view .LVU116
 377 0048 FFF7FEFF 		bl	Error_Handler
 378              	.LVL15:
 379              	.L27:
 287:main.c        **** 	}
 380              		.loc 1 287 2 view .LVU117
ARM GAS  /tmp/cca5PHjt.s 			page 19


 381 004c FFF7FEFF 		bl	Error_Handler
 382              	.LVL16:
 383              	.L28:
 291:main.c        **** 	}
 384              		.loc 1 291 2 view .LVU118
 385 0050 FFF7FEFF 		bl	Error_Handler
 386              	.LVL17:
 387              	.L29:
 295:main.c        **** 	}
 388              		.loc 1 295 2 view .LVU119
 389 0054 FFF7FEFF 		bl	Error_Handler
 390              	.LVL18:
 391              	.L31:
 392              		.align	2
 393              	.L30:
 394 0058 00000000 		.word	huart1
 395 005c 00100140 		.word	1073811456
 396              		.cfi_endproc
 397              	.LFE147:
 399              		.section	.text.SystemClock_Config,"ax",%progbits
 400              		.align	1
 401              		.global	SystemClock_Config
 402              		.syntax unified
 403              		.thumb
 404              		.thumb_func
 406              	SystemClock_Config:
 407              	.LFB145:
 146:main.c        **** /* Initialization Structs */
 408              		.loc 1 146 1 view -0
 409              		.cfi_startproc
 410              		@ args = 0, pretend = 0, frame = 112
 411              		@ frame_needed = 0, uses_anonymous_args = 0
 412 0000 00B5     		push	{lr}
 413              	.LCFI6:
 414              		.cfi_def_cfa_offset 4
 415              		.cfi_offset 14, -4
 416 0002 9DB0     		sub	sp, sp, #116
 417              	.LCFI7:
 418              		.cfi_def_cfa_offset 120
 148:main.c        **** RCC_ClkInitTypeDef RCC_ClkInitStruct = {0};
 419              		.loc 1 148 1 view .LVU121
 148:main.c        **** RCC_ClkInitTypeDef RCC_ClkInitStruct = {0};
 420              		.loc 1 148 20 is_stmt 0 view .LVU122
 421 0004 4C22     		movs	r2, #76
 422 0006 0021     		movs	r1, #0
 423 0008 09A8     		add	r0, sp, #36
 424 000a FFF7FEFF 		bl	memset
 425              	.LVL19:
 149:main.c        **** 
 426              		.loc 1 149 1 is_stmt 1 view .LVU123
 149:main.c        **** 
 427              		.loc 1 149 20 is_stmt 0 view .LVU124
 428 000e 2022     		movs	r2, #32
 429 0010 0021     		movs	r1, #0
 430 0012 01A8     		add	r0, sp, #4
 431 0014 FFF7FEFF 		bl	memset
 432              	.LVL20:
ARM GAS  /tmp/cca5PHjt.s 			page 20


 152:main.c        **** 
 433              		.loc 1 152 1 is_stmt 1 view .LVU125
 434 0018 0220     		movs	r0, #2
 435 001a FFF7FEFF 		bl	HAL_PWREx_ConfigSupply
 436              	.LVL21:
 155:main.c        **** 
 437              		.loc 1 155 1 view .LVU126
 438              	.LBB9:
 155:main.c        **** 
 439              		.loc 1 155 1 view .LVU127
 440 001e 0023     		movs	r3, #0
 441 0020 0093     		str	r3, [sp]
 155:main.c        **** 
 442              		.loc 1 155 1 view .LVU128
 155:main.c        **** 
 443              		.loc 1 155 1 view .LVU129
 444 0022 254B     		ldr	r3, .L39
 445 0024 9A69     		ldr	r2, [r3, #24]
 446 0026 42F44042 		orr	r2, r2, #49152
 447 002a 9A61     		str	r2, [r3, #24]
 155:main.c        **** 
 448              		.loc 1 155 1 view .LVU130
 449 002c 9B69     		ldr	r3, [r3, #24]
 450 002e 03F44043 		and	r3, r3, #49152
 451 0032 0093     		str	r3, [sp]
 155:main.c        **** 
 452              		.loc 1 155 1 view .LVU131
 453 0034 214B     		ldr	r3, .L39+4
 454 0036 DA6A     		ldr	r2, [r3, #44]
 455 0038 42F00102 		orr	r2, r2, #1
 456 003c DA62     		str	r2, [r3, #44]
 155:main.c        **** 
 457              		.loc 1 155 1 view .LVU132
 458 003e DB6A     		ldr	r3, [r3, #44]
 459 0040 03F00103 		and	r3, r3, #1
 460 0044 0093     		str	r3, [sp]
 155:main.c        **** 
 461              		.loc 1 155 1 view .LVU133
 462 0046 009B     		ldr	r3, [sp]
 463              	.LBE9:
 155:main.c        **** 
 464              		.loc 1 155 1 view .LVU134
 157:main.c        **** 	{
 465              		.loc 1 157 1 view .LVU135
 466              	.L33:
 160:main.c        **** 
 467              		.loc 1 160 2 discriminator 1 view .LVU136
 157:main.c        **** 	{
 468              		.loc 1 157 7 discriminator 1 view .LVU137
 157:main.c        **** 	{
 469              		.loc 1 157 8 is_stmt 0 discriminator 1 view .LVU138
 470 0048 1B4B     		ldr	r3, .L39
 471 004a 9B69     		ldr	r3, [r3, #24]
 157:main.c        **** 	{
 472              		.loc 1 157 7 discriminator 1 view .LVU139
 473 004c 13F4005F 		tst	r3, #8192
 474 0050 FAD0     		beq	.L33
ARM GAS  /tmp/cca5PHjt.s 			page 21


 164:main.c        **** RCC_OscInitStruct.HSEState       = RCC_HSE_ON;
 475              		.loc 1 164 1 is_stmt 1 view .LVU140
 164:main.c        **** RCC_OscInitStruct.HSEState       = RCC_HSE_ON;
 476              		.loc 1 164 34 is_stmt 0 view .LVU141
 477 0052 0123     		movs	r3, #1
 478 0054 0993     		str	r3, [sp, #36]
 165:main.c        **** RCC_OscInitStruct.PLL.PLLState   = RCC_PLL_ON;
 479              		.loc 1 165 1 is_stmt 1 view .LVU142
 165:main.c        **** RCC_OscInitStruct.PLL.PLLState   = RCC_PLL_ON;
 480              		.loc 1 165 34 is_stmt 0 view .LVU143
 481 0056 4FF48033 		mov	r3, #65536
 482 005a 0A93     		str	r3, [sp, #40]
 166:main.c        **** RCC_OscInitStruct.PLL.PLLSource  = RCC_PLLSOURCE_HSE;
 483              		.loc 1 166 1 is_stmt 1 view .LVU144
 166:main.c        **** RCC_OscInitStruct.PLL.PLLSource  = RCC_PLLSOURCE_HSE;
 484              		.loc 1 166 34 is_stmt 0 view .LVU145
 485 005c 0223     		movs	r3, #2
 486 005e 1293     		str	r3, [sp, #72]
 167:main.c        **** RCC_OscInitStruct.PLL.PLLM       = 2;
 487              		.loc 1 167 1 is_stmt 1 view .LVU146
 167:main.c        **** RCC_OscInitStruct.PLL.PLLM       = 2;
 488              		.loc 1 167 34 is_stmt 0 view .LVU147
 489 0060 1393     		str	r3, [sp, #76]
 168:main.c        **** RCC_OscInitStruct.PLL.PLLN       = 80;
 490              		.loc 1 168 1 is_stmt 1 view .LVU148
 168:main.c        **** RCC_OscInitStruct.PLL.PLLN       = 80;
 491              		.loc 1 168 34 is_stmt 0 view .LVU149
 492 0062 1493     		str	r3, [sp, #80]
 169:main.c        **** RCC_OscInitStruct.PLL.PLLP       = 2;
 493              		.loc 1 169 1 is_stmt 1 view .LVU150
 169:main.c        **** RCC_OscInitStruct.PLL.PLLP       = 2;
 494              		.loc 1 169 34 is_stmt 0 view .LVU151
 495 0064 5022     		movs	r2, #80
 496 0066 1592     		str	r2, [sp, #84]
 170:main.c        **** RCC_OscInitStruct.PLL.PLLQ       = 2;
 497              		.loc 1 170 1 is_stmt 1 view .LVU152
 170:main.c        **** RCC_OscInitStruct.PLL.PLLQ       = 2;
 498              		.loc 1 170 34 is_stmt 0 view .LVU153
 499 0068 1693     		str	r3, [sp, #88]
 171:main.c        **** RCC_OscInitStruct.PLL.PLLR       = 2;
 500              		.loc 1 171 1 is_stmt 1 view .LVU154
 171:main.c        **** RCC_OscInitStruct.PLL.PLLR       = 2;
 501              		.loc 1 171 34 is_stmt 0 view .LVU155
 502 006a 1793     		str	r3, [sp, #92]
 172:main.c        **** RCC_OscInitStruct.PLL.PLLRGE     = RCC_PLL1VCIRANGE_3;
 503              		.loc 1 172 1 is_stmt 1 view .LVU156
 172:main.c        **** RCC_OscInitStruct.PLL.PLLRGE     = RCC_PLL1VCIRANGE_3;
 504              		.loc 1 172 34 is_stmt 0 view .LVU157
 505 006c 1893     		str	r3, [sp, #96]
 173:main.c        **** RCC_OscInitStruct.PLL.PLLVCOSEL  = RCC_PLL1VCOWIDE;
 506              		.loc 1 173 1 is_stmt 1 view .LVU158
 173:main.c        **** RCC_OscInitStruct.PLL.PLLVCOSEL  = RCC_PLL1VCOWIDE;
 507              		.loc 1 173 34 is_stmt 0 view .LVU159
 508 006e 0C23     		movs	r3, #12
 509 0070 1993     		str	r3, [sp, #100]
 174:main.c        **** RCC_OscInitStruct.PLL.PLLFRACN   = 0;
 510              		.loc 1 174 1 is_stmt 1 view .LVU160
ARM GAS  /tmp/cca5PHjt.s 			page 22


 174:main.c        **** RCC_OscInitStruct.PLL.PLLFRACN   = 0;
 511              		.loc 1 174 34 is_stmt 0 view .LVU161
 512 0072 0023     		movs	r3, #0
 513 0074 1A93     		str	r3, [sp, #104]
 175:main.c        **** if (HAL_RCC_OscConfig(&RCC_OscInitStruct) != HAL_OK)
 514              		.loc 1 175 1 is_stmt 1 view .LVU162
 175:main.c        **** if (HAL_RCC_OscConfig(&RCC_OscInitStruct) != HAL_OK)
 515              		.loc 1 175 34 is_stmt 0 view .LVU163
 516 0076 1B93     		str	r3, [sp, #108]
 176:main.c        **** 	{
 517              		.loc 1 176 1 is_stmt 1 view .LVU164
 176:main.c        **** 	{
 518              		.loc 1 176 5 is_stmt 0 view .LVU165
 519 0078 09A8     		add	r0, sp, #36
 520 007a FFF7FEFF 		bl	HAL_RCC_OscConfig
 521              	.LVL22:
 176:main.c        **** 	{
 522              		.loc 1 176 4 view .LVU166
 523 007e B8B9     		cbnz	r0, .L37
 182:main.c        **** 	                               RCC_CLOCKTYPE_SYSCLK  |
 524              		.loc 1 182 1 is_stmt 1 view .LVU167
 182:main.c        **** 	                               RCC_CLOCKTYPE_SYSCLK  |
 525              		.loc 1 182 34 is_stmt 0 view .LVU168
 526 0080 3F23     		movs	r3, #63
 527 0082 0193     		str	r3, [sp, #4]
 188:main.c        **** RCC_ClkInitStruct.SYSCLKDivider  = RCC_SYSCLK_DIV1;
 528              		.loc 1 188 1 is_stmt 1 view .LVU169
 188:main.c        **** RCC_ClkInitStruct.SYSCLKDivider  = RCC_SYSCLK_DIV1;
 529              		.loc 1 188 34 is_stmt 0 view .LVU170
 530 0084 0323     		movs	r3, #3
 531 0086 0293     		str	r3, [sp, #8]
 189:main.c        **** RCC_ClkInitStruct.AHBCLKDivider  = RCC_HCLK_DIV2;
 532              		.loc 1 189 1 is_stmt 1 view .LVU171
 189:main.c        **** RCC_ClkInitStruct.AHBCLKDivider  = RCC_HCLK_DIV2;
 533              		.loc 1 189 34 is_stmt 0 view .LVU172
 534 0088 0023     		movs	r3, #0
 535 008a 0393     		str	r3, [sp, #12]
 190:main.c        **** RCC_ClkInitStruct.APB3CLKDivider = RCC_APB3_DIV2;
 536              		.loc 1 190 1 is_stmt 1 view .LVU173
 190:main.c        **** RCC_ClkInitStruct.APB3CLKDivider = RCC_APB3_DIV2;
 537              		.loc 1 190 34 is_stmt 0 view .LVU174
 538 008c 0823     		movs	r3, #8
 539 008e 0493     		str	r3, [sp, #16]
 191:main.c        **** RCC_ClkInitStruct.APB1CLKDivider = RCC_APB1_DIV2;
 540              		.loc 1 191 1 is_stmt 1 view .LVU175
 191:main.c        **** RCC_ClkInitStruct.APB1CLKDivider = RCC_APB1_DIV2;
 541              		.loc 1 191 34 is_stmt 0 view .LVU176
 542 0090 4023     		movs	r3, #64
 543 0092 0593     		str	r3, [sp, #20]
 192:main.c        **** RCC_ClkInitStruct.APB2CLKDivider = RCC_APB2_DIV2;
 544              		.loc 1 192 1 is_stmt 1 view .LVU177
 192:main.c        **** RCC_ClkInitStruct.APB2CLKDivider = RCC_APB2_DIV2;
 545              		.loc 1 192 34 is_stmt 0 view .LVU178
 546 0094 0693     		str	r3, [sp, #24]
 193:main.c        **** RCC_ClkInitStruct.APB4CLKDivider = RCC_APB4_DIV2;
 547              		.loc 1 193 1 is_stmt 1 view .LVU179
 193:main.c        **** RCC_ClkInitStruct.APB4CLKDivider = RCC_APB4_DIV2;
ARM GAS  /tmp/cca5PHjt.s 			page 23


 548              		.loc 1 193 34 is_stmt 0 view .LVU180
 549 0096 4FF48062 		mov	r2, #1024
 550 009a 0792     		str	r2, [sp, #28]
 194:main.c        **** 
 551              		.loc 1 194 1 is_stmt 1 view .LVU181
 194:main.c        **** 
 552              		.loc 1 194 34 is_stmt 0 view .LVU182
 553 009c 0893     		str	r3, [sp, #32]
 197:main.c        **** 	{
 554              		.loc 1 197 1 is_stmt 1 view .LVU183
 197:main.c        **** 	{
 555              		.loc 1 197 5 is_stmt 0 view .LVU184
 556 009e 0421     		movs	r1, #4
 557 00a0 0DEB0100 		add	r0, sp, r1
 558 00a4 FFF7FEFF 		bl	HAL_RCC_ClockConfig
 559              	.LVL23:
 197:main.c        **** 	{
 560              		.loc 1 197 4 view .LVU185
 561 00a8 20B9     		cbnz	r0, .L38
 201:main.c        **** 
 562              		.loc 1 201 1 view .LVU186
 563 00aa 1DB0     		add	sp, sp, #116
 564              	.LCFI8:
 565              		.cfi_remember_state
 566              		.cfi_def_cfa_offset 4
 567              		@ sp needed
 568 00ac 5DF804FB 		ldr	pc, [sp], #4
 569              	.L37:
 570              	.LCFI9:
 571              		.cfi_restore_state
 178:main.c        **** 	}
 572              		.loc 1 178 2 is_stmt 1 view .LVU187
 573 00b0 FFF7FEFF 		bl	Error_Handler
 574              	.LVL24:
 575              	.L38:
 199:main.c        **** 	}
 576              		.loc 1 199 2 view .LVU188
 577 00b4 FFF7FEFF 		bl	Error_Handler
 578              	.LVL25:
 579              	.L40:
 580              		.align	2
 581              	.L39:
 582 00b8 00480258 		.word	1476544512
 583 00bc 00040058 		.word	1476396032
 584              		.cfi_endproc
 585              	.LFE145:
 587              		.section	.text.main,"ax",%progbits
 588              		.align	1
 589              		.global	main
 590              		.syntax unified
 591              		.thumb
 592              		.thumb_func
 594              	main:
 595              	.LFB144:
  65:main.c        **** /*------------------------------------------------------------------------------
 596              		.loc 1 65 1 view -0
 597              		.cfi_startproc
ARM GAS  /tmp/cca5PHjt.s 			page 24


 598              		@ args = 0, pretend = 0, frame = 8
 599              		@ frame_needed = 0, uses_anonymous_args = 0
 600 0000 00B5     		push	{lr}
 601              	.LCFI10:
 602              		.cfi_def_cfa_offset 4
 603              		.cfi_offset 14, -4
 604 0002 83B0     		sub	sp, sp, #12
 605              	.LCFI11:
 606              		.cfi_def_cfa_offset 16
  69:main.c        **** USB_STATUS usb_status;  /* Status of USB module               */
 607              		.loc 1 69 1 view .LVU190
  70:main.c        **** RF_STATUS  rf_status;   /* Status of wireless module          */
 608              		.loc 1 70 1 view .LVU191
  71:main.c        **** 
 609              		.loc 1 71 1 view .LVU192
  77:main.c        **** SystemClock_Config();   /* SysClock  */
 610              		.loc 1 77 1 view .LVU193
 611 0004 FFF7FEFF 		bl	HAL_Init
 612              	.LVL26:
  78:main.c        **** GPIO_Init();            /* GPIO Pins */
 613              		.loc 1 78 1 view .LVU194
 614 0008 FFF7FEFF 		bl	SystemClock_Config
 615              	.LVL27:
  79:main.c        **** XBee_UART_Init();       /* XBee      */
 616              		.loc 1 79 1 view .LVU195
 617 000c FFF7FEFF 		bl	GPIO_Init
 618              	.LVL28:
  80:main.c        **** USB_UART_Init();        /* USB       */
 619              		.loc 1 80 1 view .LVU196
 620 0010 FFF7FEFF 		bl	XBee_UART_Init
 621              	.LVL29:
  81:main.c        **** 
 622              		.loc 1 81 1 view .LVU197
 623 0014 FFF7FEFF 		bl	USB_UART_Init
 624              	.LVL30:
 625              	.L42:
  87:main.c        **** 	{
 626              		.loc 1 87 1 view .LVU198
  90:main.c        ****                               sizeof( uint8_t ), 
 627              		.loc 1 90 2 view .LVU199
  90:main.c        ****                               sizeof( uint8_t ), 
 628              		.loc 1 90 15 is_stmt 0 view .LVU200
 629 0018 0122     		movs	r2, #1
 630 001a 1146     		mov	r1, r2
 631 001c 0DF10700 		add	r0, sp, #7
 632 0020 FFF7FEFF 		bl	usb_receive
 633              	.LVL31:
  95:main.c        **** 		{
 634              		.loc 1 95 2 is_stmt 1 view .LVU201
  95:main.c        **** 		{
 635              		.loc 1 95 5 is_stmt 0 view .LVU202
 636 0024 0228     		cmp	r0, #2
 637 0026 F7D0     		beq	.L42
  97:main.c        **** 			{
 638              		.loc 1 97 3 is_stmt 1 view .LVU203
 639 0028 084B     		ldr	r3, .L47
 640 002a 1B78     		ldrb	r3, [r3]	@ zero_extendqisi2
ARM GAS  /tmp/cca5PHjt.s 			page 25


 641 002c 4BB1     		cbz	r3, .L43
 642 002e 012B     		cmp	r3, #1
 643 0030 09D1     		bne	.L44
 101:main.c        **** 				if ( rf_status != RF_OK )
 644              		.loc 1 101 5 view .LVU204
 101:main.c        **** 				if ( rf_status != RF_OK )
 645              		.loc 1 101 17 is_stmt 0 view .LVU205
 646 0032 9DF80700 		ldrb	r0, [sp, #7]	@ zero_extendqisi2
 647              	.LVL32:
 101:main.c        **** 				if ( rf_status != RF_OK )
 648              		.loc 1 101 17 view .LVU206
 649 0036 FFF7FEFF 		bl	rf_xbee_transmit_byte
 650              	.LVL33:
 102:main.c        **** 					{
 651              		.loc 1 102 5 is_stmt 1 view .LVU207
 102:main.c        **** 					{
 652              		.loc 1 102 8 is_stmt 0 view .LVU208
 653 003a 0028     		cmp	r0, #0
 654 003c ECD0     		beq	.L42
 104:main.c        **** 					}
 655              		.loc 1 104 6 is_stmt 1 view .LVU209
 656 003e FFF7FEFF 		bl	Error_Handler
 657              	.LVL34:
 658              	.L43:
 112:main.c        **** 				break;
 659              		.loc 1 112 5 view .LVU210
 660 0042 FFF7FEFF 		bl	Error_Handler
 661              	.LVL35:
 662              	.L44:
 118:main.c        **** 				break;
 663              		.loc 1 118 5 view .LVU211
 664 0046 FFF7FEFF 		bl	Error_Handler
 665              	.LVL36:
 666              	.L48:
 118:main.c        **** 				break;
 667              		.loc 1 118 5 is_stmt 0 view .LVU212
 668 004a 00BF     		.align	2
 669              	.L47:
 670 004c 00000000 		.word	wireless_mod
 671              		.cfi_endproc
 672              	.LFE144:
 674              		.global	wireless_mod
 675              		.section	.data.wireless_mod,"aw"
 678              	wireless_mod:
 679 0000 01       		.byte	1
 680              		.global	huart1
 681              		.section	.bss.huart1,"aw",%nobits
 682              		.align	2
 685              	huart1:
 686 0000 00000000 		.space	144
 686      00000000 
 686      00000000 
 686      00000000 
 686      00000000 
 687              		.global	huart4
 688              		.section	.bss.huart4,"aw",%nobits
 689              		.align	2
ARM GAS  /tmp/cca5PHjt.s 			page 26


 692              	huart4:
 693 0000 00000000 		.space	144
 693      00000000 
 693      00000000 
 693      00000000 
 693      00000000 
 694              		.text
 695              	.Letext0:
 696              		.file 3 "/usr/arm-none-eabi/include/machine/_default_types.h"
 697              		.file 4 "/usr/arm-none-eabi/include/sys/_stdint.h"
 698              		.file 5 "../../lib/Drivers/CMSIS/Device/ST/STM32H7xx/Include/stm32h750xx.h"
 699              		.file 6 "/usr/lib/gcc/arm-none-eabi/12.2.0/include/stddef.h"
 700              		.file 7 "../../lib/Drivers/STM32H7xx_HAL_Driver/Inc/stm32h7xx_hal_def.h"
 701              		.file 8 "../../lib/Drivers/STM32H7xx_HAL_Driver/Inc/stm32h7xx_hal_rcc.h"
 702              		.file 9 "../../lib/Drivers/STM32H7xx_HAL_Driver/Inc/stm32h7xx_hal_gpio.h"
 703              		.file 10 "../../lib/Drivers/STM32H7xx_HAL_Driver/Inc/stm32h7xx_hal_dma.h"
 704              		.file 11 "../../lib/Drivers/STM32H7xx_HAL_Driver/Inc/stm32h7xx_hal_uart.h"
 705              		.file 12 "../../lib/sdr_pin_defines_A0005.h"
 706              		.file 13 "../../mod/usb/usb.h"
 707              		.file 14 "../../mod/wireless/wireless.h"
 708              		.file 15 "../../lib/Drivers/STM32H7xx_HAL_Driver/Inc/stm32h7xx_hal_pwr_ex.h"
 709              		.file 16 "../../lib/Drivers/STM32H7xx_HAL_Driver/Inc/stm32h7xx_hal_uart_ex.h"
 710              		.file 17 "../../mod/led/led.h"
 711              		.file 18 "../../lib/Drivers/STM32H7xx_HAL_Driver/Inc/stm32h7xx_hal.h"
 712              		.file 19 "<built-in>"
ARM GAS  /tmp/cca5PHjt.s 			page 27

